
Allocating common symbols
Common symbol       size              file

current_iphdr_src   0x4               os/net/lwip-1.4.1/src/core/ipv4/ip.o
netif_list          0x4               os/net/lwip-1.4.1/src/core/netif.o
tcp_active_pcbs_changed
                    0x1               os/net/lwip-1.4.1/src/core/tcp.o
tcp_active_pcbs     0x4               os/net/lwip-1.4.1/src/core/tcp.o
udp_pcbs            0x4               os/net/lwip-1.4.1/src/core/udp.o
errno               0x4               os/filesys/filesys.o
current_netif       0x4               os/net/lwip-1.4.1/src/core/ipv4/ip.o
shell               0x4               os/shell.o
tcp_ticks           0x4               os/net/lwip-1.4.1/src/core/tcp.o
tcp_listen_pcbs     0x4               os/net/lwip-1.4.1/src/core/tcp.o
uart2_rx_fifo       0x4               os/getchar.o
current_iphdr_dest  0x4               os/net/lwip-1.4.1/src/core/ipv4/ip.o
this_eth_dev        0x80              os/net/synMain.o
loadStack           0x4               os/filesys/load.o
dcache_desc         0x10              lib/ls1c_cache.o
tcp_tmp_pcb         0x4               os/net/lwip-1.4.1/src/core/tcp.o
h_errno             0x4               os/net/lwip-1.4.1/src/api/netdb.o
loadEntry           0x4               os/filesys/load.o
LOAD_THREAD         0x400             os/context_gcc.o
rt_thread_priority_table
                    0x100             os/thread.o
tcp_input_pcb       0x4               os/net/lwip-1.4.1/src/core/tcp_in.o
rt_thread_dead      0x8               os/thread.o
current_header      0x4               os/net/lwip-1.4.1/src/core/ipv4/ip.o
rt_current_priority
                    0x1               os/thread.o
_serv_stayopen      0x4               os/filesys/tftplib.o
irq_handlers        0x500             lib/ls1c_irq.o
dl_entry            0x4               os/filesys/loadelf.o
tcp_bound_pcbs      0x4               os/net/lwip-1.4.1/src/core/tcp.o
rt_all_thread       0x8               os/thread.o
rt_assert_hook      0x4               os/thread.o
pbuf_free_ooseq_pending
                    0x1               os/net/lwip-1.4.1/src/core/pbuf.o
icache_desc         0x10              lib/ls1c_cache.o
envvar              0x200             os/env.o
spi_flash           0x10              os/hardware/spi_flash.o
rt_thread_ready_priority_group
                    0x4               os/thread.o
dl_offset           0x4               os/filesys/loadelf.o
tcp_tw_pcbs         0x4               os/net/lwip-1.4.1/src/core/tcp.o
netif_default       0x4               os/net/lwip-1.4.1/src/core/netif.o
rt_timer_list       0x8               os/thread.o
TxMessage           0x14              example/test_can.o
exception_handlers  0x80              lib/ls1c_irq.o
spi0                0x18              os/hardware/spi_flash.o
RxMessage           0x14              example/test_can.o
LOAD_THREAD_STACK   0x400             os/context_gcc.o
dl_minaddr          0x4               os/filesys/loadelf.o
len                 0x4               os/net/synopGMAC_Dev.o
dl_maxaddr          0x4               os/filesys/loadelf.o
tftpOpenfile        0x8c              os/filesys/filesys.o

Discarded input sections

 .reginfo       0x0000000000000000        0x0 os/context_gcc.o
 .reginfo       0x0000000000000000        0x0 lib/ls1c_delay.o
 .reginfo       0x0000000000000000        0x0 lib/ls1c_cache.o
 .reginfo       0x0000000000000000        0x0 lib/ls1c_can.o
 .reginfo       0x0000000000000000        0x0 lib/ls1c_simulate_i2c.o
 .reginfo       0x0000000000000000        0x0 lib/ls1c_timer.o
 .reginfo       0x0000000000000000        0x0 lib/ls1c_pin.o
 .reginfo       0x0000000000000000        0x0 lib/ls1c_irq.o
 .reginfo       0x0000000000000000        0x0 lib/ls1c_i2c.o
 .reginfo       0x0000000000000000        0x0 lib/ls1c_public.o
 .reginfo       0x0000000000000000        0x0 lib/ls1c_sys_tick.o
 .reginfo       0x0000000000000000        0x0 lib/ls1c_clock.o
 .reginfo       0x0000000000000000        0x0 lib/ls1c_uart.o
 .reginfo       0x0000000000000000        0x0 lib/ls1c_spi.o
 .reginfo       0x0000000000000000        0x0 lib/ls1c_gpio.o
 .reginfo       0x0000000000000000        0x0 lib/ls1c_pwm.o
 .reginfo       0x0000000000000000        0x0 example/test_delay.o
 .reginfo       0x0000000000000000        0x0 example/test_can.o
 .reginfo       0x0000000000000000        0x0 example/test_i2c.o
 .reginfo       0x0000000000000000        0x0 example/test_fpu.o
 .reginfo       0x0000000000000000        0x0 example/test_timer.o
 .reginfo       0x0000000000000000        0x0 example/led.o
 .reginfo       0x0000000000000000        0x0 example/test_gpio.o
 .reginfo       0x0000000000000000        0x0 example/test_sys_tick.o
 .reginfo       0x0000000000000000        0x0 example/test_uart.o
 .reginfo       0x0000000000000000        0x0 example/test_spi.o
 .reginfo       0x0000000000000000        0x0 example/test_simulate_i2c.o
 .reginfo       0x0000000000000000        0x0 example/test_pwm.o
 .reginfo       0x0000000000000000        0x0 app/main.o
 .reginfo       0x0000000000000000        0x0 libc/ctype.o
 .reginfo       0x0000000000000000        0x0 libc/printf.o
 .reginfo       0x0000000000000000        0x0 libc/strcspn.o
 .reginfo       0x0000000000000000        0x0 libc/sprintf.o
 .reginfo       0x0000000000000000        0x0 libc/strstr.o
 .reginfo       0x0000000000000000        0x0 libc/strlen.o
 .reginfo       0x0000000000000000        0x0 libc/strcmp.o
 .reginfo       0x0000000000000000        0x0 libc/strcpy.o
 .reginfo       0x0000000000000000        0x0 libc/modf.o
 .reginfo       0x0000000000000000        0x0 libc/memcpy.o
 .reginfo       0x0000000000000000        0x0 libc/strichr.o
 .reginfo       0x0000000000000000        0x0 libc/strcat.o
 .reginfo       0x0000000000000000        0x0 libc/strtoupp.o
 .reginfo       0x0000000000000000        0x0 libc/fls.o
 .reginfo       0x0000000000000000        0x0 libc/scanf.o
 .reginfo       0x0000000000000000        0x0 libc/toupper.o
 .reginfo       0x0000000000000000        0x0 libc/strncpy.o
 .reginfo       0x0000000000000000        0x0 libc/atob.o
 .reginfo       0x0000000000000000        0x0 libc/vsprintf.o
 .reginfo       0x0000000000000000        0x0 libc/ffs.o
 .reginfo       0x0000000000000000        0x0 libc/str_fmt.o
 .reginfo       0x0000000000000000        0x0 libc/strchr.o
 .reginfo       0x0000000000000000        0x0 libm/s_fabs.o
 .reginfo       0x0000000000000000        0x0 libm/s_scalbn.o
 .reginfo       0x0000000000000000        0x0 libm/e_pow.o
 .reginfo       0x0000000000000000        0x0 libm/e_sqrt.o
 .reginfo       0x0000000000000000        0x0 libm/s_copysign.o
 .reginfo       0x0000000000000000        0x0 os/getchar.o
 .reginfo       0x0000000000000000        0x0 os/mem.o
 .reginfo       0x0000000000000000        0x0 os/testFun.o
 .reginfo       0x0000000000000000        0x0 os/stdlib.o
 .reginfo       0x0000000000000000        0x0 os/env.o
 .reginfo       0x0000000000000000        0x0 os/common_fun.o
 .reginfo       0x0000000000000000        0x0 os/os.o
 .reginfo       0x0000000000000000        0x0 os/shell.o
 .reginfo       0x0000000000000000        0x0 os/rand.o
 .reginfo       0x0000000000000000        0x0 os/thread.o
 .reginfo       0x0000000000000000        0x0 os/net/synMain.o
 .reginfo       0x0000000000000000        0x0 os/net/mii.o
 .reginfo       0x0000000000000000        0x0 os/net/synopGMAC_plat.o
 .reginfo       0x0000000000000000        0x0 os/net/synopGMAC_Dev.o
 .reginfo       0x0000000000000000        0x0 os/net/lwip-1.4.1/src/core/dhcp.o
 .reginfo       0x0000000000000000        0x0 os/net/lwip-1.4.1/src/core/mem.o
 .reginfo       0x0000000000000000        0x0 os/net/lwip-1.4.1/src/core/init.o
 .reginfo       0x0000000000000000        0x0 os/net/lwip-1.4.1/src/core/memp.o
 .reginfo       0x0000000000000000        0x0 os/net/lwip-1.4.1/src/core/sys.o
 .reginfo       0x0000000000000000        0x0 os/net/lwip-1.4.1/src/core/tcp_in.o
 .reginfo       0x0000000000000000        0x0 os/net/lwip-1.4.1/src/core/dns.o
 .reginfo       0x0000000000000000        0x0 os/net/lwip-1.4.1/src/core/raw.o
 .reginfo       0x0000000000000000        0x0 os/net/lwip-1.4.1/src/core/tcp.o
 .reginfo       0x0000000000000000        0x0 os/net/lwip-1.4.1/src/core/def.o
 .reginfo       0x0000000000000000        0x0 os/net/lwip-1.4.1/src/core/netif.o
 .reginfo       0x0000000000000000        0x0 os/net/lwip-1.4.1/src/core/stats.o
 .reginfo       0x0000000000000000        0x0 os/net/lwip-1.4.1/src/core/timers.o
 .reginfo       0x0000000000000000        0x0 os/net/lwip-1.4.1/src/core/pbuf.o
 .reginfo       0x0000000000000000        0x0 os/net/lwip-1.4.1/src/core/udp.o
 .reginfo       0x0000000000000000        0x0 os/net/lwip-1.4.1/src/core/tcp_out.o
 .reginfo       0x0000000000000000        0x0 os/net/lwip-1.4.1/src/core/ipv4/ip_frag.o
 .reginfo       0x0000000000000000        0x0 os/net/lwip-1.4.1/src/core/ipv4/inet.o
 .reginfo       0x0000000000000000        0x0 os/net/lwip-1.4.1/src/core/ipv4/ip_addr.o
 .reginfo       0x0000000000000000        0x0 os/net/lwip-1.4.1/src/core/ipv4/igmp.o
 .reginfo       0x0000000000000000        0x0 os/net/lwip-1.4.1/src/core/ipv4/ip.o
 .reginfo       0x0000000000000000        0x0 os/net/lwip-1.4.1/src/core/ipv4/autoip.o
 .reginfo       0x0000000000000000        0x0 os/net/lwip-1.4.1/src/core/ipv4/inet_chksum.o
 .reginfo       0x0000000000000000        0x0 os/net/lwip-1.4.1/src/core/ipv4/icmp.o
 .reginfo       0x0000000000000000        0x0 os/net/lwip-1.4.1/src/api/netdb.o
 .reginfo       0x0000000000000000        0x0 os/net/lwip-1.4.1/src/api/api_lib.o
 .reginfo       0x0000000000000000        0x0 os/net/lwip-1.4.1/src/api/netifapi.o
 .reginfo       0x0000000000000000        0x0 os/net/lwip-1.4.1/src/api/tcpip.o
 .reginfo       0x0000000000000000        0x0 os/net/lwip-1.4.1/src/api/netbuf.o
 .reginfo       0x0000000000000000        0x0 os/net/lwip-1.4.1/src/api/err.o
 .reginfo       0x0000000000000000        0x0 os/net/lwip-1.4.1/src/api/api_msg.o
 .reginfo       0x0000000000000000        0x0 os/net/lwip-1.4.1/src/api/sockets.o
 .reginfo       0x0000000000000000        0x0 os/net/lwip-1.4.1/src/netif/slipif.o
 .reginfo       0x0000000000000000        0x0 os/net/lwip-1.4.1/src/netif/etharp.o
 .reginfo       0x0000000000000000        0x0 os/net/lwip-1.4.1/src/netif/ethernetif.o
 .reginfo       0x0000000000000000        0x0 os/net/lwip-1.4.1/src/arch/sys_arch.o
 .reginfo       0x0000000000000000        0x0 os/hardware/spi_flash.o
 .reginfo       0x0000000000000000        0x0 os/hardware/reboot.o
 .reginfo       0x0000000000000000        0x0 os/filesys/netio.o
 .reginfo       0x0000000000000000        0x0 os/filesys/tftplib.o
 .reginfo       0x0000000000000000        0x0 os/filesys/filesys.o
 .reginfo       0x0000000000000000        0x0 os/filesys/loadelf.o
 .reginfo       0x0000000000000000        0x0 os/filesys/load.o

Memory Configuration

Name             Origin             Length             Attributes
*default*        0x0000000000000000 0xffffffffffffffff

Linker script and memory map

                0xffffffff80010000                . = 0xffffffff80010000

.text           0xffffffff80010000    0x2c5dc
                0xffffffff80010000                _ftext = .
 *(.text)
 .text          0xffffffff80010000      0xe00 lib/start.o
                0xffffffff80010a28                __main
                0xffffffff80010b18                general_exception
                0xffffffff80010cf0                cp0_get_hi
                0xffffffff80010c90                handle_reserved
                0xffffffff80010d10                tlb_refill_exception
                0xffffffff8000c000                stack
                0xffffffff80010808                suspend_save
                0xffffffff80010c94                CPU_SetSR
                0xffffffff80010cd0                cp0_get_cause
                0xffffffff8001089c                outstring
                0xffffffff80010a4c                nullfunction
                0xffffffff80010000                _start
                0xffffffff80010914                tgt_putchar
                0xffffffff8001086c                stringserial
                0xffffffff80010b34                handle_int2
                0xffffffff80010ce0                cp0_get_status
                0xffffffff800107a0                suspend_resume
                0xffffffff80010a58                cache_init
                0xffffffff80010d00                cp0_get_lo
                0xffffffff80010a30                CPU_DisableCache
                0xffffffff80010000                start
                0xffffffff800108c8                hexserial
                0xffffffff8001093c                initserial
 .text          0xffffffff80010e00      0x440 os/context_gcc.o
                0xffffffff80010f94                rt_hw_context_switch_to
                0xffffffff80011030                rt_hw_context_switch_interrupt
                0xffffffff80011070                handle_int
                0xffffffff80010e00                rt_hw_interrupt_disable
                0xffffffff80010e18                rt_hw_interrupt_enable
                0xffffffff80010e44                rt_hw_context_switch
 .text          0xffffffff80011240      0x100 lib/ls1c_delay.o
                0xffffffff80011240                delay_us
                0xffffffff800112a8                delay_ms
                0xffffffff80011308                delay_s
 .text          0xffffffff80011340      0x610 lib/ls1c_cache.o
                0xffffffff800115c0                dcache_writeback_invalidate_all
                0xffffffff80011340                dcache_writeback_invalidate_range
                0xffffffff800116b4                icache_invalidate_all
                0xffffffff800117a8                cache_probe
                0xffffffff80011480                icache_invalidate_range
 .text          0xffffffff80011950      0x560 lib/ls1c_can.o
                0xffffffff80011d10                CAN_FilterInit
                0xffffffff80011a98                CAN_Receive
                0xffffffff80011d84                CAN_Init
                0xffffffff80011950                CAN_Transmit
 .text          0xffffffff80011eb0      0x440 lib/ls1c_simulate_i2c.o
                0xffffffff80011ee8                simulate_i2c_config_sda_in
                0xffffffff80011fac                simulate_i2c_read_ack
                0xffffffff800122bc                simulate_i2c_init
                0xffffffff80012020                simulate_i2c_config_sda_out
                0xffffffff80011edc                simulate_i2c_scl_out_high
                0xffffffff80012234                simulate_i2c_start
                0xffffffff800121b8                simulate_i2c_stop
                0xffffffff80011ef4                simulate_i2c_read_byte
                0xffffffff80012154                simulate_i2c_send_ack
                0xffffffff80011ed0                simulate_i2c_scl_out_low
                0xffffffff800120f0                simulate_i2c_send_no_ack
                0xffffffff800122b0                simulate_i2c_config_scl_out
                0xffffffff80011ec4                simulate_i2c_sda_out_high
                0xffffffff80011eb8                simulate_i2c_sda_out_low
                0xffffffff80011eb0                simulate_i2c_sda_in
                0xffffffff8001202c                simulate_i2c_write_byte
 .text          0xffffffff800122f0      0x3c0 lib/ls1c_timer.o
                0xffffffff80012534                timer_init
                0xffffffff800124c0                timer_stop
                0xffffffff8001245c                timer_restart
                0xffffffff800122f0                timer_get_reg_base
                0xffffffff80012350                timer_print_regs
 .text          0xffffffff800126b0      0x2c0 lib/ls1c_pin.o
                0xffffffff800126b0                pin_set_remap
                0xffffffff80012914                pin_set_purpose
 .text          0xffffffff80012970      0x3b0 lib/ls1c_irq.o
                0xffffffff80012a94                irq_disable_all
                0xffffffff80012988                irq_enable
                0xffffffff80012bf0                irq_default_handler
                0xffffffff80012c00                irq_set_exception_vector_handler
                0xffffffff800129fc                irq_install
                0xffffffff800129c0                irq_disable
                0xffffffff80012acc                ls1c_do_IRQ
                0xffffffff80012b74                plat_irq_dispatch
                0xffffffff80012a2c                irq_init
                0xffffffff80012ae8                ls1c_irq_dispatch
                0xffffffff80012c4c                exception_init
                0xffffffff80012aac                irq_enable_all
                0xffffffff80012970                irq_set_one_exception_handler
 .text          0xffffffff80012d20      0x5f0 lib/ls1c_i2c.o
                0xffffffff80012dd4                i2c_cmd_stop
                0xffffffff80012d20                i2c_get_base
                0xffffffff80012e38                i2c_receive_ack
                0xffffffff80012ddc                i2c_send_stop
                0xffffffff80012dc4                i2c_cmd_read_ack
                0xffffffff80012dbc                i2c_cmd_read_nack
                0xffffffff80012de4                i2c_cmd_start
                0xffffffff800131ec                i2c_receive_data
                0xffffffff80012f88                i2c_poll_status
                0xffffffff80012fec                i2c_send_data
                0xffffffff80012e60                i2c_init
                0xffffffff80012dcc                i2c_cmd_write
                0xffffffff80012dec                i2c_get_status
                0xffffffff80012db4                i2c_cmd_iack
                0xffffffff80013128                i2c_send_start_and_addr
                0xffffffff80012d64                i2c_cmd
 .text          0xffffffff80013310       0x80 lib/ls1c_public.o
                0xffffffff8001332c                reg_clr_one_bit
                0xffffffff80013378                reg_write_32
                0xffffffff80013310                reg_set_one_bit
                0xffffffff80013384                reg_read_32
                0xffffffff8001335c                reg_write_8
                0xffffffff8001334c                reg_get_bit
                0xffffffff8001336c                reg_read_8
 .text          0xffffffff80013390      0x110 lib/ls1c_sys_tick.o
                0xffffffff80013418                sys_tick_get
                0xffffffff80013400                sys_tick_increase
                0xffffffff800133c4                sys_tick_init
                0xffffffff80013390                sys_tick_disable
                0xffffffff80013428                sys_tick_handler
                0xffffffff800133ac                sys_tick_enable
 .text          0xffffffff800134a0      0x240 lib/ls1c_clock.o
                0xffffffff80013504                clk_get_dc_rate
                0xffffffff800135d8                clk_get_ddr_rate
                0xffffffff800134a0                clk_get_pll_rate
                0xffffffff80013548                clk_get_cpu_rate
                0xffffffff80013650                clk_print_all
                0xffffffff80013648                clk_get_apb_rate
 .text          0xffffffff800136e0      0x6a0 lib/ls1c_uart.o
                0xffffffff80013ce8                uart_print
                0xffffffff80013d50                uart2_print
                0xffffffff800136e0                uart_get_base
                0xffffffff80013cd8                uart_debug_putc
                0xffffffff800137a4                uart_irqn_to_uartx
                0xffffffff80013d38                uart_debug_print
                0xffffffff80013824                uart_init
                0xffffffff80013a68                uart2_init
                0xffffffff80013ba0                uart_putc
                0xffffffff80013ab8                uart_is_transmit_empty
 .text          0xffffffff80013d80      0x7c0 lib/ls1c_spi.o
                0xffffffff80014318                spi_init
                0xffffffff80014278                spi_set_clock
                0xffffffff800143f8                spi_txrx_byte
                0xffffffff8001403c                spi_print_all_regs_info
                0xffffffff80013f6c                spi_clear
                0xffffffff80013ef4                spi_set_mode
                0xffffffff80013e14                spi_set_cs
                0xffffffff80013d80                spi_get_base
                0xffffffff80014154                spi_get_div
                0xffffffff80013da0                spi_wait_txrx_done
 .text          0xffffffff80014540      0x350 lib/ls1c_gpio.o
                0xffffffff80014744                gpio_get
                0xffffffff80014608                gpio_set_irq_type
                0xffffffff800145a4                gpio_get_en_reg
                0xffffffff80014540                gpio_get_cfg_reg
                0xffffffff800147b4                gpio_set
                0xffffffff8001482c                gpio_init
 .text          0xffffffff80014890      0x3d0 lib/ls1c_pwm.o
                0xffffffff80014890                pwm_get_reg_base
                0xffffffff800149a0                pwm_init
                0xffffffff80014930                pwm_enable
                0xffffffff80014c2c                pwm_disable
 .text          0xffffffff80014c60      0x230 example/test_delay.o
                0xffffffff80014cd8                test_delay_1us
                0xffffffff80014c60                test_delay_1s
                0xffffffff80014dc8                test_delay_1ms
 .text          0xffffffff80014e90      0x720 example/test_can.o
                0xffffffff8001541c                ls1c_can0_irqhandler
                0xffffffff80015284                ls1c_can1_irqhandler
                0xffffffff80014e90                candump
                0xffffffff80015180                test_cansend
                0xffffffff80014fc0                Can_Config
 .text          0xffffffff800155b0      0x1d0 example/test_i2c.o
                0xffffffff800155b0                test_i2c_am2320
 .text          0xffffffff80015780      0x300 example/test_fpu.o
                0xffffffff80015834                test_fpu_multiplication
                0xffffffff80015780                test_fpu_division
                0xffffffff8001599c                test_fpu_add
                0xffffffff80015a48                test_fpu
                0xffffffff800158e8                test_fpu_subtraction
 .text          0xffffffff80015a80       0xc0 example/test_timer.o
                0xffffffff80015a80                test_timer_irq
                0xffffffff80015b04                test_timer_pwm0_irqhandler
 .text          0xffffffff80015b40       0x40 example/led.o
                0xffffffff80015b48                led_on
                0xffffffff80015b40                led_off
                0xffffffff80015b50                led_init
 .text          0xffffffff80015b80      0x1b0 example/test_gpio.o
                0xffffffff80015c44                test_gpio_input
                0xffffffff80015b80                test_gpio_key_irqhandler
                0xffffffff80015b94                test_gpio_key_irq
                0xffffffff80015cc0                test_gpio_output
 .text          0xffffffff80015d30      0x150 example/test_sys_tick.o
                0xffffffff80015d30                test_sys_tick
 .text          0xffffffff80015e80      0x440 example/test_uart.o
                0xffffffff80015f28                test_uart1_send_recv
                0xffffffff80016048                test_uart8_send_recv
                0xffffffff80015e80                test_uart2_print_helloworld
                0xffffffff80015eac                test_printf
                0xffffffff80016230                test_uart_irqhandler
                0xffffffff8001613c                test_uart3_send_recv
                0xffffffff80015fb8                test_uart2_send_recv
 .text          0xffffffff800162c0      0x620 example/test_spi.o
                0xffffffff80016820                tm7705_init
                0xffffffff800165e0                tm7705_calib_self
                0xffffffff8001645c                tm7705_wait_DRDY
                0xffffffff800164c4                tm7705_read_channel
                0xffffffff800168b8                test_spi_tm7705
                0xffffffff8001639c                tm7705_sync_spi
                0xffffffff800166c8                tm7705_reset_and_reconfig
                0xffffffff80016700                tm7705_get_ad
                0xffffffff80016658                tm7705_config_channel
                0xffffffff800167c4                tm7705_get_temperature
                0xffffffff80016410                tm7705_reset
                0xffffffff800162c0                tm7705_calc_temp_from_ad
 .text          0xffffffff800168e0      0x300 example/test_simulate_i2c.o
                0xffffffff80016940                am2320_get_temp_humi
                0xffffffff80016bb4                test_simulate_i2c_am2320
                0xffffffff800168e0                am2320_crc16
                0xffffffff80016ba8                am2320_init
 .text          0xffffffff80016be0      0x140 example/test_pwm.o
                0xffffffff80016be0                test_pwm_gpio04_gpio06
                0xffffffff80016c34                test_pwm_pulse
                0xffffffff80016cb0                test_pwm_normal
 .text          0xffffffff80016d20       0xb0 app/main.o
                0xffffffff80016d20                fpu_init
                0xffffffff80016d54                bsp_init
                0xffffffff80016da4                main
 .text          0xffffffff80016dd0        0x0 libc/ctype.o
 .text          0xffffffff80016dd0       0xb0 libc/printf.o
                0xffffffff80016dd0                printf
 .text          0xffffffff80016e80       0x60 libc/strcspn.o
                0xffffffff80016e80                strcspn
 .text          0xffffffff80016ee0       0x30 libc/sprintf.o
                0xffffffff80016ee0                sprintf
 .text          0xffffffff80016f10       0x80 libc/strstr.o
                0xffffffff80016f10                strstr
 .text          0xffffffff80016f90       0x30 libc/strlen.o
                0xffffffff80016f90                strlen
 .text          0xffffffff80016fc0       0x40 libc/strcmp.o
                0xffffffff80016fc0                strcmp
 .text          0xffffffff80017000       0x90 libc/strcpy.o
                0xffffffff80017000                strcpy
                0xffffffff80017030                strlcpy
 .text          0xffffffff80017090      0x100 libc/modf.o
                0xffffffff80017090                modf
 .text          0xffffffff80017190       0x90 libc/memcpy.o
                0xffffffff80017190                memcpy
                0xffffffff800171f0                memset
 .text          0xffffffff80017220       0x70 libc/strichr.o
                0xffffffff80017220                strichr
 .text          0xffffffff80017290       0x60 libc/strcat.o
                0xffffffff80017290                strcat
 .text          0xffffffff800172f0       0x50 libc/strtoupp.o
                0xffffffff800172f0                strtoupper
 .text          0xffffffff80017340       0x90 libc/fls.o
                0xffffffff80017340                fls
 .text          0xffffffff800173d0      0x410 libc/scanf.o
                0xffffffff800177b0                sscanf
 .text          0xffffffff800177e0       0x20 libc/toupper.o
                0xffffffff800177e0                toupper
 .text          0xffffffff80017800       0x80 libc/strncpy.o
                0xffffffff80017800                strncpy
 .text          0xffffffff80017880      0x470 libc/atob.o
                0xffffffff80017880                gethex
                0xffffffff80017c3c                atob
                0xffffffff80017918                btoa
 .text          0xffffffff80017cf0     0x1160 libc/vsprintf.o
                0xffffffff80018924                vsprintf
 .text          0xffffffff80018e50       0x30 libc/ffs.o
                0xffffffff80018e50                ffs
 .text          0xffffffff80018e80      0x190 libc/str_fmt.o
                0xffffffff80018e80                str_fmt
 .text          0xffffffff80019010       0x50 libc/strchr.o
                0xffffffff80019010                strchr
 .text          0xffffffff80019060       0x30 libm/s_fabs.o
                0xffffffff80019060                fabs
 .text          0xffffffff80019090      0x190 libm/s_scalbn.o
                0xffffffff80019090                scalbn
 .text          0xffffffff80019220      0xad0 libm/e_pow.o
                0xffffffff80019220                __ieee754_pow
                0xffffffff80019ce4                pow
 .text          0xffffffff80019cf0      0x2a0 libm/e_sqrt.o
                0xffffffff80019f84                sqrt
                0xffffffff80019cf0                __ieee754_sqrt
 .text          0xffffffff80019f90       0x40 libm/s_copysign.o
                0xffffffff80019f90                copysign
 .text          0xffffffff80019fd0      0x2c0 os/getchar.o
                0xffffffff8001a000                uart2GetCharInit
                0xffffffff80019fd0                rt_hw_interrupt_install
                0xffffffff8001a0b0                getchar
                0xffffffff8001a17c                rt_hw_serial_isr
 .text          0xffffffff8001a290      0xc70 os/mem.o
                0xffffffff8001adb0                rt_system_heap_init
                0xffffffff8001a400                memmove
                0xffffffff8001aaf0                malloc_align
                0xffffffff8001a808                malloc
                0xffffffff8001ab5c                calloc
                0xffffffff8001a34c                str_common
                0xffffffff8001a2c8                strncmp
                0xffffffff8001abac                realloc
                0xffffffff8001a46c                list_mem
                0xffffffff8001a3a8                memcmp
                0xffffffff8001a290                rt_memory_info
                0xffffffff8001a600                free
 .text          0xffffffff8001af00        0x0 os/testFun.o
 .text          0xffffffff8001af00       0xb0 os/stdlib.o
                0xffffffff8001af00                atoi
 .text          0xffffffff8001afb0      0xd90 os/env.o
                0xffffffff8001b024                check_mac_format
                0xffffffff8001bbf0                getenv
                0xffffffff8001b710                striequ
                0xffffffff8001b270                nvram_put
                0xffffffff8001b8e8                map_rom_env
                0xffffffff8001b1f0                clearEnv
                0xffffffff8001b230                bootSpaceErase
                0xffffffff8001b398                unset_rom_env
                0xffffffff8001b570                set_rom_env
                0xffffffff8001b380                nvram_get
                0xffffffff8001b2c0                resetNorEnvSpace
                0xffffffff8001bcac                envinit
                0xffffffff8001b118                mac_str_to_hex
                0xffffffff8001bab0                do_setenv
                0xffffffff8001bb24                set
 .text          0xffffffff8001bd40      0x6e0 os/common_fun.o
                0xffffffff8001c070                dataHexPrint2
                0xffffffff8001bea8                getstr
                0xffffffff8001bd40                panduan_hex
                0xffffffff8001bf38                gets
                0xffffffff8001bfb0                dotik
                0xffffffff8001c2a8                show_hex
                0xffffffff8001c1a0                dataHexPrint
                0xffffffff8001bd94                str_to_hex
 .text          0xffffffff8001c420      0x2f0 os/os.o
                0xffffffff8001c50c                osMain
                0xffffffff8001c5f8                rt_hw_cpu_shutdown
                0xffffffff8001c678                rt_interrupt_get_nest
                0xffffffff8001c4b4                rt_components_init
                0xffffffff8001c614                tlb_refill_handler
                0xffffffff8001c6ac                rt_interrupt_leave
                0xffffffff8001c458                rt_hw_interrupt_mask
                0xffffffff8001c6dc                rt_interrupt_enter
                0xffffffff8001c420                rt_hw_interrupt_umask
 .text          0xffffffff8001c710      0xd00 os/shell.o
                0xffffffff8001c7bc                msh_exec
                0xffffffff8001cdec                shell_thread_entry
                0xffffffff8001c734                shellInit
                0xffffffff8001c710                msh_auto_complete_path
                0xffffffff8001c720                finsh_system_function_init
                0xffffffff8001cbe4                msh_auto_complete
                0xffffffff8001cb18                help
                0xffffffff8001c718                msh_exec_script
 .text          0xffffffff8001d410       0xc0 os/rand.o
                0xffffffff8001d410                rand_r
                0xffffffff8001d4ac                rand
                0xffffffff8001d4b8                srand
 .text          0xffffffff8001d4d0     0x2710 os/thread.o
                0xffffffff8001dcf0                list_thread
                0xffffffff8001f7d8                rt_hw_stack_init
                0xffffffff8001d740                rt_assert_handler
                0xffffffff8001f4fc                rt_thread_delay
                0xffffffff8001d4f4                rt_list_remove
                0xffffffff8001e230                rt_timer_check
                0xffffffff8001d9f0                rt_schedule_insert_thread
                0xffffffff8001dc64                rt_thread_suspend
                0xffffffff8001f6f0                rt_thread_timeout
                0xffffffff8001d514                rt_list_isempty
                0xffffffff8001e394                rt_mb_delete
                0xffffffff8001d834                rt_timer_init
                0xffffffff8001e54c                rt_mb_create
                0xffffffff8001d65c                find_thread_by_id
                0xffffffff8001d724                show_rt_current_thread_remain_tick
                0xffffffff8001d5d8                thread_init
                0xffffffff8001f1b8                rt_sem_release
                0xffffffff8001f974                thread_join_init
                0xffffffff8001d798                rt_mb_init
                0xffffffff8001d4dc                rt_list_insert_before
                0xffffffff8001dbc4                rt_sem_detach
                0xffffffff8001d69c                ps_thread
                0xffffffff8001dafc                rt_thread_resume
                0xffffffff8001eb08                kill
                0xffffffff8001f764                rt_thread_exit
                0xffffffff8001d524                rt_list_insert_after
                0xffffffff8001da8c                rt_timer_stop
                0xffffffff8001d4d0                rt_list_init
                0xffffffff8001e9c8                killThreadFun
                0xffffffff8001d53c                __rt_ffs
                0xffffffff8001f490                rt_thread_sleep
                0xffffffff8001ee38                rt_mb_send_wait
                0xffffffff8001f1b0                rt_mb_send
                0xffffffff8001f504                idle_thread
                0xffffffff8001e6c8                thread_start
                0xffffffff8001f400                rt_thread_dead_exit
                0xffffffff8001eb44                rt_mb_recv
                0xffffffff8001d640                rt_sem_init
                0xffffffff8001d960                rt_schedule_remove_thread
                0xffffffff8001d5cc                rt_thread_self
                0xffffffff8001f23c                rt_sem_take
                0xffffffff8001f614                threadTask
                0xffffffff8001e4b4                rt_sem_delete
                0xffffffff8001e744                rt_schedule
                0xffffffff8001e630                rt_sem_create
                0xffffffff8001e320                rt_timer_start
 .text          0xffffffff8001fbe0     0x1330 os/net/synMain.o
                0xffffffff80020694                synopGMAC_setup_rx_desc_queue
                0xffffffff80020c6c                rt_eth_tx
                0xffffffff80020754                synopGMAC_setup_tx_desc_queue
                0xffffffff8001fbe0                rt_hw_eth_init
                0xffffffff80020a6c                rt_eth_rx
                0xffffffff8001fe08                hw_eth_init_thread_entry
                0xffffffff800201a4                eth_rx_irq
                0xffffffff8001fc5c                init_phy
                0xffffffff8002057c                synopGMAC_linux_cable_unplug_function
                0xffffffff80020814                init_eth
                0xffffffff800204b8                synopGMAC_check_phy_init
 .text          0xffffffff80020f10      0x420 os/net/mii.o
                0xffffffff800212d8                mii_link_ok
                0xffffffff80020f10                mii_check_gmii_support
                0xffffffff80020f84                mii_ethtool_gset
 .text          0xffffffff80021330      0x1c0 os/net/synopGMAC_plat.o
                0xffffffff80021330                flush_cache
                0xffffffff80021480                plat_alloc_memory
                0xffffffff800213cc                plat_free_memory
                0xffffffff800213d4                plat_free_consistent_dmaable_memory
                0xffffffff800213c4                plat_delay
                0xffffffff800213ec                plat_alloc_consistent_dmaable_memory
                0xffffffff8002136c                gmac_dmamap
                0xffffffff8002137c                plat_dma_map_single
 .text          0xffffffff800214f0     0x2680 os/net/synopGMAC_Dev.o
                0xffffffff80023040                synopGMAC_read_mmc_tx_int_status
                0xffffffff80021560                synopGMAC_wd_enable
                0xffffffff80023274                synopGMAC_TS_int_enable
                0xffffffff800232a8                synopGMAC_TS_mac_addr_filt_enable
                0xffffffff800218b8                synopGMAC_write_hash_table_low
                0xffffffff80022e90                synopGMAC_pmt_int_disable
                0xffffffff80022fb4                synopGMAC_mmc_counters_set_selfclear
                0xffffffff80021ae0                synopGMAC_tx_flow_control_enable
                0xffffffff80021a28                synopGMAC_promisc_disable
                0xffffffff8002175c                synopGMAC_retry_disable
                0xffffffff8002234c                synopGMAC_is_sof_in_rx_desc
                0xffffffff8002334c                synopGMAC_TS_event_disable
                0xffffffff80021538                synopGMAC_dma_bus_mode_init
                0xffffffff80023a60                synopGMAC_attach
                0xffffffff80022f80                synopGMAC_mmc_counters_stop
                0xffffffff80021514                synopGMAC_get_mdc_clk_div
                0xffffffff800218e0                synopGMAC_Hash_filter_only_enable
                0xffffffff80023104                synopGMAC_disable_rx_Ipchecksum_offload
                0xffffffff800215f4                synopGMAC_frame_burst_disable
                0xffffffff80021a78                synopGMAC_unicast_pause_frame_detect_enable
                0xffffffff80021bc8                synopGMAC_mac_init
                0xffffffff8002159c                synopGMAC_jab_enable
                0xffffffff80023140                synopGMAC_rx_tcpip_chksum_drop_disable
                0xffffffff80022400                synopGMAC_is_exc_tx_collisions
                0xffffffff800220cc                synopGMAC_set_mac_addr
                0xffffffff80022cac                synopGMAC_disable_interrupt
                0xffffffff80023564                synopGMAC_TS_timestamp_init
                0xffffffff800236bc                synopGMAC_TS_addend_update
                0xffffffff800219c0                synopGMAC_multicast_disable
                0xffffffff80023240                synopGMAC_TS_enable
                0xffffffff800216d8                synopGMAC_loopback_on
                0xffffffff80023404                synopGMAC_TS_pkt_snoop_ver2
                0xffffffff80023068                synopGMAC_enable_mmc_tx_interrupt
                0xffffffff80021ac4                synopGMAC_rx_flow_control_disable
                0xffffffff800215d8                synopGMAC_frame_burst_enable
                0xffffffff80023450                synopGMAC_TS_binary_rollover_enable
                0xffffffff8002236c                synopGMAC_is_da_filter_failed
                0xffffffff80022210                synopGMAC_init_tx_rx_desc_queue
                0xffffffff800222e8                synopGMAC_init_rx_desc_base
                0xffffffff80023930                synopGMAC_read_phy_reg
                0xffffffff80022f10                synopGMAC_magic_packet_enable
                0xffffffff8002181c                synopGMAC_rx_disable
                0xffffffff80021a90                synopGMAC_unicast_pause_frame_detect_disable
                0xffffffff800223a4                synopGMAC_is_desc_valid
                0xffffffff80023084                synopGMAC_disable_mmc_rx_interrupt
                0xffffffff80021804                synopGMAC_rx_enable
                0xffffffff800218f8                synopGMAC_src_addr_filter_enable
                0xffffffff800216c0                synopGMAC_rx_own_disable
                0xffffffff80023120                synopGMAC_rx_tcpip_chksum_drop_enable
                0xffffffff800230b8                synopGMAC_disable_mmc_ipc_rx_interrupt
                0xffffffff800222fc                synopGMAC_init_tx_desc_base
                0xffffffff80022f58                synopGMAC_is_magic_packet_received
                0xffffffff80021524                synopGMAC_read_version
                0xffffffff800224b8                synopGMAC_get_desc_data
                0xffffffff8002166c                synopGMAC_select_gmii
                0xffffffff80022430                synopGMAC_is_frame_dribbling_errors
                0xffffffff80021954                synopGMAC_set_pass_control
                0xffffffff8002178c                synopGMAC_pad_crc_strip_disable
                0xffffffff80021b14                synopGMAC_tx_activate_flow_control
                0xffffffff800214f0                synopGMAC_set_mdc_clk_div
                0xffffffff80023438                synopGMAC_TS_digital_rollover_enable
                0xffffffff80023854                synopGMAC_reset
                0xffffffff8002301c                synopGMAC_read_mmc_counter
                0xffffffff8002235c                synopGMAC_is_eof_in_rx_desc
                0xffffffff80022c7c                synopGMAC_get_interrupt_mask
                0xffffffff800223e8                synopGMAC_is_tx_carrier_error
                0xffffffff80022f6c                synopGMAC_is_wakeup_frame_received
                0xffffffff800234d4                synopGMAC_TS_subsecond_init
                0xffffffff800232fc                synopGMAC_TS_master_enable
                0xffffffff80022424                synopGMAC_is_rx_crc
                0xffffffff800219dc                synopGMAC_multicast_hash_filter_enable
                0xffffffff800223b4                synopGMAC_is_desc_empty
                0xffffffff80022e3c                synopGMAC_disable_dma_tx
                0xffffffff80022398                synopGMAC_get_rx_desc_frame_length
                0xffffffff80022d1c                synopGMAC_take_desc_ownership
                0xffffffff8002339c                synopGMAC_TS_IPV6_enable
                0xffffffff800231c8                synopGMAC_is_tx_payload_checksum_error
                0xffffffff80023380                synopGMAC_TS_IPV4_disable
                0xffffffff800221e4                synopGMAC_rx_desc_init_chain
                0xffffffff80022fe8                synopGMAC_mmc_counters_disable_rollover
                0xffffffff80023548                synopGMAC_TS_read_target_timestamp
                0xffffffff80021b90                synopGMAC_pause_control
                0xffffffff800233e8                synopGMAC_TS_ptp_over_ethernet_disable
                0xffffffff800217b0                synopGMAC_back_off_limit
                0xffffffff80023610                synopGMAC_TS_timestamp_update
                0xffffffff80021630                synopGMAC_jumbo_frame_disable
                0xffffffff80022c68                synopGMAC_clear_interrupt
                0xffffffff8002170c                synopGMAC_set_full_duplex
                0xffffffff80021a5c                synopGMAC_unicast_hash_filter_disable
                0xffffffff80022f98                synopGMAC_mmc_counters_resume
                0xffffffff80022e58                synopGMAC_disable_dma_rx
                0xffffffff800223f4                synopGMAC_get_tx_collision_count
                0xffffffff80022ec0                synopGMAC_power_down_disable
                0xffffffff80021b64                synopGMAC_tx_deactivate_flow_control
                0xffffffff80022c9c                synopGMAC_disable_interrupt_all
                0xffffffff800232e4                synopGMAC_TS_set_clk_type
                0xffffffff8002350c                synopGMAC_TS_load_timestamp_higher_val
                0xffffffff800224a0                synopGMAC_is_rx_desc_chained
                0xffffffff800230ec                synopGMAC_enable_rx_chksum_offload
                0xffffffff8002216c                synopGMAC_rx_desc_init_ring
                0xffffffff8002154c                synopGMAC_dma_control_init
                0xffffffff800221fc                synopGMAC_tx_desc_init_chain
                0xffffffff80021940                synopGMAC_dst_addr_filter_normal
                0xffffffff800217d0                synopGMAC_deferral_check_enable
                0xffffffff800219a8                synopGMAC_multicast_enable
                0xffffffff80021990                synopGMAC_broadcast_disable
                0xffffffff80021af8                synopGMAC_tx_flow_control_disable
                0xffffffff80023520                synopGMAC_TS_read_timestamp_higher_val
                0xffffffff80022e74                synopGMAC_pmt_int_enable
                0xffffffff80022890                synopGMAC_set_rx_qptr
                0xffffffff800234bc                synopGMAC_TS_fine_update
                0xffffffff80023258                synopGMAC_TS_disable
                0xffffffff80021580                synopGMAC_wd_disable
                0xffffffff8002186c                synopGMAC_frame_filter_enable
                0xffffffff80021974                synopGMAC_broadcast_enable
                0xffffffff80022448                synopGMAC_is_last_rx_desc
                0xffffffff80021a44                synopGMAC_unicast_hash_filter_enable
                0xffffffff800231bc                synopGMAC_is_tx_ipv4header_checksum_error
                0xffffffff80023484                synopGMAC_TS_all_frames_disable
                0xffffffff800234e8                synopGMAC_TS_read_timestamp
                0xffffffff8002346c                synopGMAC_TS_all_frames_enable
                0xffffffff80022310                synopGMAC_set_owner_dma
                0xffffffff80023290                synopGMAC_TS_int_disable
                0xffffffff80022f28                synopGMAC_wakeup_frame_enable
                0xffffffff80021838                synopGMAC_tx_enable
                0xffffffff80022fcc                synopGMAC_mmc_counters_reset_selfclear
                0xffffffff8002322c                synopGMAC_tx_checksum_offload_tcp_pseudo
                0xffffffff800230d0                synopGMAC_enable_mmc_ipc_rx_interrupt
                0xffffffff80022edc                synopGMAC_enable_pmt_interrupt
                0xffffffff8002309c                synopGMAC_enable_mmc_rx_interrupt
                0xffffffff8002315c                synopGMAC_is_rx_checksum_error
                0xffffffff80022c8c                synopGMAC_enable_interrupt
                0xffffffff8002320c                synopGMAC_tx_checksum_offload_tcponly
                0xffffffff80022ac8                synopGMAC_get_rx_qptr
                0xffffffff8002240c                synopGMAC_is_rx_frame_damaged
                0xffffffff80022324                synopGMAC_set_desc_sof
                0xffffffff800216f0                synopGMAC_loopback_off
                0xffffffff80023334                synopGMAC_TS_event_enable
                0xffffffff8002341c                synopGMAC_TS_pkt_snoop_ver1
                0xffffffff80023368                synopGMAC_TS_IPV4_enable
                0xffffffff800219f4                synopGMAC_multicast_hash_filter_disable
                0xffffffff8002188c                synopGMAC_frame_filter_disable
                0xffffffff80021650                synopGMAC_disable_crs
                0xffffffff8002168c                synopGMAC_select_mii
                0xffffffff800215b8                synopGMAC_jab_disable
                0xffffffff800231ec                synopGMAC_tx_checksum_offload_ipv4hdr
                0xffffffff80022124                synopGMAC_get_mac_addr
                0xffffffff80021aac                synopGMAC_rx_flow_control_enable
                0xffffffff800218a8                synopGMAC_write_hash_table_high
                0xffffffff80022198                synopGMAC_rx_desc_recycle
                0xffffffff800233b4                synopGMAC_TS_IPV6_disable
                0xffffffff800229b4                synopGMAC_set_rx_qptr_init
                0xffffffff800223dc                synopGMAC_is_tx_aborted
                0xffffffff80022ef8                synopGMAC_disable_pmt_interrupt
                0xffffffff80021740                synopGMAC_retry_enable
                0xffffffff80022474                synopGMAC_is_last_tx_desc
                0xffffffff80021910                synopGMAC_src_addr_filter_disable
                0xffffffff800216a4                synopGMAC_rx_own_enable
                0xffffffff80023000                synopGMAC_mmc_counters_enable_rollover
                0xffffffff8002375c                synopGMAC_write_wakeup_frame_register
                0xffffffff80022f40                synopGMAC_pmt_unicast_enable
                0xffffffff80022ce0                synopGMAC_enable_dma_tx
                0xffffffff800232c4                synopGMAC_TS_mac_addr_filt_disable
                0xffffffff8002192c                synopGMAC_dst_addr_filter_inverse
                0xffffffff800239f8                synopGMAC_phy_loopback
                0xffffffff80022cf8                synopGMAC_resume_dma_tx
                0xffffffff800218c8                synopGMAC_hash_perfect_filter_enable
                0xffffffff80023894                synopGMAC_write_phy_reg
                0xffffffff80022cc8                synopGMAC_enable_dma_rx
                0xffffffff800224ac                synopGMAC_is_tx_desc_chained
                0xffffffff800221b8                synopGMAC_tx_desc_init_ring
                0xffffffff800226e0                synopGMAC_set_tx_qptr
                0xffffffff800231d4                synopGMAC_tx_checksum_offload_bypass
                0xffffffff8002237c                synopGMAC_is_sa_filter_failed
                0xffffffff80021774                synopGMAC_pad_crc_strip_enable
                0xffffffff80021850                synopGMAC_tx_disable
                0xffffffff80021724                synopGMAC_set_half_duplex
                0xffffffff80022338                synopGMAC_set_desc_eof
                0xffffffff80023030                synopGMAC_read_mmc_rx_int_status
                0xffffffff80021a10                synopGMAC_promisc_enable
                0xffffffff80023314                synopGMAC_TS_master_disable
                0xffffffff80022dbc                synopGMAC_take_desc_ownership_tx
                0xffffffff800234a0                synopGMAC_TS_coarse_update
                0xffffffff80023050                synopGMAC_disable_mmc_tx_interrupt
                0xffffffff800233d0                synopGMAC_TS_ptp_over_ethernet_enable
                0xffffffff80022d0c                synopGMAC_resume_dma_rx
                0xffffffff80022d3c                synopGMAC_take_desc_ownership_rx
                0xffffffff80022548                synopGMAC_get_tx_qptr
                0xffffffff800223cc                synopGMAC_is_rx_desc_valid
                0xffffffff80022418                synopGMAC_is_rx_frame_collision
                0xffffffff8002243c                synopGMAC_is_rx_frame_length_errors
                0xffffffff800237c8                synopGMAC_get_interrupt_type
                0xffffffff80023530                synopGMAC_TS_load_target_timestamp
                0xffffffff800217e8                synopGMAC_deferral_check_disable
                0xffffffff80021614                synopGMAC_jumbo_frame_enable
                0xffffffff8002238c                synopGMAC_is_desc_owned_by_dma
                0xffffffff80022ea8                synopGMAC_power_down_enable
 .text          0xffffffff80023b70        0x0 os/net/lwip-1.4.1/src/core/dhcp.o
 .text          0xffffffff80023b70        0x0 os/net/lwip-1.4.1/src/core/mem.o
 .text          0xffffffff80023b70       0x60 os/net/lwip-1.4.1/src/core/init.o
                0xffffffff80023b70                lwip_init
 .text          0xffffffff80023bd0      0x1e0 os/net/lwip-1.4.1/src/core/memp.o
                0xffffffff80023c80                memp_free
                0xffffffff80023cfc                memp_malloc
                0xffffffff80023bd0                memp_init
 .text          0xffffffff80023db0       0x70 os/net/lwip-1.4.1/src/core/sys.o
                0xffffffff80023db0                sys_msleep
 .text          0xffffffff80023e20     0x20a0 os/net/lwip-1.4.1/src/core/tcp_in.o
                0xffffffff80025008                tcp_input
 .text          0xffffffff80025ec0      0xa20 os/net/lwip-1.4.1/src/core/dns.o
                0xffffffff80026244                dns_gethostbyname
                0xffffffff80025ec0                dns_setserver
                0xffffffff80025f0c                dns_getserver
                0xffffffff800264ac                dns_tmr
                0xffffffff800264f8                dns_init
 .text          0xffffffff800268e0        0x0 os/net/lwip-1.4.1/src/core/raw.o
 .text          0xffffffff800268e0     0x17b0 os/net/lwip-1.4.1/src/core/tcp.o
                0xffffffff8002698c                tcp_next_iss
                0xffffffff800268f0                tcp_update_rcv_ann_wnd
                0xffffffff80026970                tcp_err
                0xffffffff80026960                tcp_recv
                0xffffffff80027358                tcp_alloc
                0xffffffff80026958                tcp_arg
                0xffffffff80027d44                tcp_shutdown
                0xffffffff80027e34                tcp_recv_null
                0xffffffff80027e10                tcp_close
                0xffffffff80026a18                tcp_recved
                0xffffffff80026b5c                tcp_pcb_purge
                0xffffffff80027554                tcp_new
                0xffffffff80026b2c                tcp_segs_free
                0xffffffff800278f0                tcp_bind
                0xffffffff80027350                tcp_abort
                0xffffffff80026adc                tcp_seg_free
                0xffffffff800268e0                tcp_init
                0xffffffff8002755c                tcp_connect
                0xffffffff800269c0                tcp_eff_send_mss
                0xffffffff80026968                tcp_sent
                0xffffffff80028044                tcp_tmr
                0xffffffff80026950                tcp_setprio
                0xffffffff80026cb0                tcp_slowtmr
                0xffffffff80026978                tcp_accept
                0xffffffff800277c8                tcp_listen_with_backlog
                0xffffffff80026be0                tcp_pcb_remove
                0xffffffff800271d4                tcp_abandon
                0xffffffff800269a8                tcp_debug_state_str
                0xffffffff80027f70                tcp_fasttmr
                0xffffffff80027e8c                tcp_process_refused_data
                0xffffffff80026a88                tcp_seg_copy
                0xffffffff80026980                tcp_poll
 .text          0xffffffff80028090       0x80 os/net/lwip-1.4.1/src/core/def.o
                0xffffffff800280e8                lwip_ntohl
                0xffffffff80028090                lwip_htons
                0xffffffff800280c0                lwip_htonl
                0xffffffff800280a8                lwip_ntohs
 .text          0xffffffff80028110      0x4b0 os/net/lwip-1.4.1/src/core/netif.o
                0xffffffff80028198                netif_set_netmask
                0xffffffff80028508                netif_add
                0xffffffff800282e8                netif_set_ipaddr
                0xffffffff80028248                netif_set_up
                0xffffffff800281ac                netif_set_default
                0xffffffff800282bc                netif_set_down
                0xffffffff800281d4                netif_set_link_up
                0xffffffff800283d0                netif_set_addr
                0xffffffff800281b8                netif_set_link_down
                0xffffffff80028184                netif_set_gw
                0xffffffff8002842c                netif_remove
                0xffffffff80028110                netif_init
                0xffffffff80028118                netif_find
 .text          0xffffffff800285c0        0x0 os/net/lwip-1.4.1/src/core/stats.o
 .text          0xffffffff800285c0      0x420 os/net/lwip-1.4.1/src/core/timers.o
                0xffffffff8002885c                sys_timeouts_init
                0xffffffff80028768                sys_timeout
                0xffffffff800285c0                sys_timeouts_mbox_fetch
                0xffffffff800288a8                tcp_timer_needed
                0xffffffff800286ec                sys_untimeout
 .text          0xffffffff800289e0      0xd10 os/net/lwip-1.4.1/src/core/pbuf.o
                0xffffffff800292c4                pbuf_realloc
                0xffffffff80028c74                pbuf_memfind
                0xffffffff80029198                pbuf_free
                0xffffffff80028ae0                pbuf_cat
                0xffffffff800290f4                pbuf_ref
                0xffffffff80028e8c                pbuf_copy_partial
                0xffffffff80028dd4                pbuf_take
                0xffffffff80028fa8                pbuf_copy
                0xffffffff800293d4                pbuf_alloc
                0xffffffff80028d44                pbuf_strstr
                0xffffffff80028b94                pbuf_memcmp
                0xffffffff80028b40                pbuf_get_at
                0xffffffff80028ac0                pbuf_clen
                0xffffffff80029614                pbuf_coalesce
                0xffffffff800289e0                pbuf_header
                0xffffffff80029140                pbuf_chain
                0xffffffff8002926c                pbuf_dechain
 .text          0xffffffff800296f0      0x8b0 os/net/lwip-1.4.1/src/core/udp.o
                0xffffffff80029968                udp_remove
                0xffffffff80029c24                udp_sendto
                0xffffffff800299d0                udp_sendto_if
                0xffffffff800298fc                udp_disconnect
                0xffffffff80029914                udp_recv
                0xffffffff80029820                udp_connect
                0xffffffff800296f8                udp_bind
                0xffffffff80029cac                udp_send
                0xffffffff80029cb8                udp_input
                0xffffffff800296f0                udp_init
                0xffffffff80029920                udp_new
 .text          0xffffffff80029fa0     0x1750 os/net/lwip-1.4.1/src/core/tcp_out.o
                0xffffffff8002a300                tcp_rst
                0xffffffff8002a230                tcp_keepalive
                0xffffffff8002adac                tcp_enqueue_flags
                0xffffffff8002abf4                tcp_rexmit_rto
                0xffffffff8002afe4                tcp_write
                0xffffffff8002a538                tcp_rexmit
                0xffffffff8002af1c                tcp_send_fin
                0xffffffff8002a6a4                tcp_output
                0xffffffff8002a46c                tcp_send_empty_ack
                0xffffffff8002a5f8                tcp_rexmit_fast
                0xffffffff8002a0a8                tcp_zero_window_probe
 .text          0xffffffff8002b6f0        0x0 os/net/lwip-1.4.1/src/core/ipv4/ip_frag.o
 .text          0xffffffff8002b6f0        0x0 os/net/lwip-1.4.1/src/core/ipv4/inet.o
 .text          0xffffffff8002b6f0      0x4a0 os/net/lwip-1.4.1/src/core/ipv4/ip_addr.o
                0xffffffff8002bae8                ipaddr_addr
                0xffffffff8002b840                ipaddr_ntoa
                0xffffffff8002bb14                ip4_addr_netmask_valid
                0xffffffff8002b850                ipaddr_aton
                0xffffffff8002b6f0                ip4_addr_isbroadcast
                0xffffffff8002b74c                ipaddr_ntoa_r
 .text          0xffffffff8002bb90      0x9b0 os/net/lwip-1.4.1/src/core/ipv4/igmp.o
                0xffffffff8002c320                igmp_report_groups
                0xffffffff8002bdb8                igmp_leavegroup
                0xffffffff8002bbb4                igmp_lookfor_group
                0xffffffff8002c0c4                igmp_start
                0xffffffff8002c138                igmp_joingroup
                0xffffffff8002bf4c                igmp_stop
                0xffffffff8002c37c                igmp_input
                0xffffffff8002bb90                igmp_init
                0xffffffff8002bd44                igmp_tmr
 .text          0xffffffff8002c540      0x6e0 os/net/lwip-1.4.1/src/core/ipv4/ip.o
                0xffffffff8002c884                ip_output_if
                0xffffffff8002c8c0                ip_output
                0xffffffff8002c540                ip_route
                0xffffffff8002c5b4                ip_output_if_opt
                0xffffffff8002c950                ip_input
 .text          0xffffffff8002cc20        0x0 os/net/lwip-1.4.1/src/core/ipv4/autoip.o
 .text          0xffffffff8002cc20      0x480 os/net/lwip-1.4.1/src/core/ipv4/inet_chksum.o
                0xffffffff8002cda0                inet_chksum
                0xffffffff8002cf4c                inet_chksum_pseudo
                0xffffffff8002ccc0                inet_chksum_pbuf
                0xffffffff8002cdc4                inet_chksum_pseudo_partial
 .text          0xffffffff8002d0a0      0x310 os/net/lwip-1.4.1/src/core/ipv4/icmp.o
                0xffffffff8002d188                icmp_input
                0xffffffff8002d0a0                icmp_dest_unreach
 .text          0xffffffff8002d3b0      0x3e0 os/net/lwip-1.4.1/src/api/netdb.o
                0xffffffff8002d5ac                lwip_getaddrinfo
                0xffffffff8002d440                lwip_gethostbyname_r
                0xffffffff8002d758                lwip_freeaddrinfo
                0xffffffff8002d3b0                lwip_gethostbyname
 .text          0xffffffff8002d790      0xac0 os/net/lwip-1.4.1/src/api/api_lib.o
                0xffffffff8002d984                netconn_shutdown
                0xffffffff8002d830                netconn_recved
                0xffffffff8002d9a0                netconn_close
                0xffffffff8002dbe4                netconn_disconnect
                0xffffffff8002d890                netconn_join_leave_group
                0xffffffff8002e07c                netconn_accept
                0xffffffff8002dd4c                netconn_getaddr
                0xffffffff8002dc54                netconn_connect
                0xffffffff8002db4c                netconn_sendto
                0xffffffff8002db74                netconn_listen_with_backlog
                0xffffffff8002e154                netconn_delete
                0xffffffff8002e058                netconn_recv_tcp_pbuf
                0xffffffff8002dad8                netconn_send
                0xffffffff8002e19c                netconn_new_with_proto_and_callback
                0xffffffff8002d9a8                netconn_write_partly
                0xffffffff8002d790                netconn_gethostbyname
                0xffffffff8002dcd0                netconn_bind
                0xffffffff8002df50                netconn_recv
 .text          0xffffffff8002e250      0x1d0 os/net/lwip-1.4.1/src/api/netifapi.o
                0xffffffff8002e288                netifapi_netif_set_addr
                0xffffffff8002e2c4                netifapi_netif_add
                0xffffffff8002e318                do_netifapi_netif_common
                0xffffffff8002e3b0                do_netifapi_netif_add
                0xffffffff8002e374                do_netifapi_netif_set_addr
                0xffffffff8002e250                netifapi_netif_common
 .text          0xffffffff8002e420      0x6a0 os/net/lwip-1.4.1/src/api/tcpip.o
                0xffffffff8002e640                tcpip_callbackmsg_new
                0xffffffff8002e5ec                tcpip_trycallback
                0xffffffff8002e49c                tcpip_callbackmsg_delete
                0xffffffff8002e428                tcpip_init
                0xffffffff8002e694                tcpip_untimeout
                0xffffffff8002e868                mem_free_callback
                0xffffffff8002e714                tcpip_timeout
                0xffffffff8002e87c                pbuf_free_callback
                0xffffffff8002e890                tcpip_apimsg
                0xffffffff8002e9c4                tcpip_input
                0xffffffff8002e8f8                tcpip_netifapi
                0xffffffff8002e7a4                tcpip_callback_with_block
 .text          0xffffffff8002eac0      0x2d0 os/net/lwip-1.4.1/src/api/netbuf.o
                0xffffffff8002ebf0                netbuf_delete
                0xffffffff8002ecd4                netbuf_alloc
                0xffffffff8002ed50                netbuf_new
                0xffffffff8002eac0                netbuf_data
                0xffffffff8002ebb0                netbuf_free
                0xffffffff8002eb04                netbuf_next
                0xffffffff8002eb30                netbuf_first
                0xffffffff8002eb48                netbuf_chain
                0xffffffff8002ec48                netbuf_ref
 .text          0xffffffff8002ed90        0x0 os/net/lwip-1.4.1/src/api/err.o
 .text          0xffffffff8002ed90     0x1950 os/net/lwip-1.4.1/src/api/api_msg.o
                0xffffffff8002fe40                do_bind
                0xffffffff8002ff14                netconn_free
                0xffffffff80030180                do_delconn
                0xffffffff800300b4                do_close
                0xffffffff8002ef64                do_join_leave_group
                0xffffffff800303cc                netconn_alloc
                0xffffffff8002f9f8                do_write
                0xffffffff8002edfc                do_getaddr
                0xffffffff8002fca4                do_disconnect
                0xffffffff8002fb40                do_listen
                0xffffffff8002f010                do_recv
                0xffffffff8002ed90                do_gethostbyname
                0xffffffff800305e8                do_newconn
                0xffffffff8002fd08                do_connect
                0xffffffff8002fa70                do_send
 .text          0xffffffff800306e0     0x2470 os/net/lwip-1.4.1/src/api/sockets.o
                0xffffffff800306e0                lwip_socket_init
                0xffffffff80032124                lwip_recvfrom
                0xffffffff80031e74                lwip_send
                0xffffffff80031244                lwip_shutdown
                0xffffffff800325f4                lwip_listen
                0xffffffff800327f8                lwip_bind
                0xffffffff8003123c                lwip_getpeername
                0xffffffff80031d6c                lwip_socket
                0xffffffff800326f4                lwip_connect
                0xffffffff80031f78                lwip_sendto
                0xffffffff80031954                lwip_select
                0xffffffff800324e8                lwip_read
                0xffffffff80030810                lwip_setsockopt
                0xffffffff80031234                lwip_getsockname
                0xffffffff80030a38                lwip_getsockopt
                0xffffffff80031f70                lwip_write
                0xffffffff800324c8                lwip_recv
                0xffffffff800306e8                lwip_ioctl
                0xffffffff80030778                lwip_fcntl
                0xffffffff8003250c                lwip_close
                0xffffffff800328ec                lwip_accept
 .text          0xffffffff80032b50        0x0 os/net/lwip-1.4.1/src/netif/slipif.o
 .text          0xffffffff80032b50      0xec0 os/net/lwip-1.4.1/src/netif/etharp.o
                0xffffffff800333d0                etharp_request
                0xffffffff80032f00                etharp_cleanup_netif
                0xffffffff80032f7c                etharp_tmr
                0xffffffff8003304c                ethernet_input
                0xffffffff80032e80                etharp_find_addr
                0xffffffff800335c8                etharp_query
                0xffffffff8003382c                etharp_output
 .text          0xffffffff80033a10      0x7c0 os/net/lwip-1.4.1/src/netif/ethernetif.o
                0xffffffff80033f94                eth_device_ready
                0xffffffff80033a10                list_if
                0xffffffff80033fb4                eth_device_linkchange
                0xffffffff80033c80                eth_system_device_init
                0xffffffff80034060                eth_device_init
 .text          0xffffffff800341d0      0x4d0 os/net/lwip-1.4.1/src/arch/sys_arch.o
                0xffffffff800342cc                sys_mbox_trypost
                0xffffffff800341d0                sys_init
                0xffffffff80034370                sys_sem_signal
                0xffffffff80034240                sys_arch_mbox_fetch
                0xffffffff800341f8                sys_assert
                0xffffffff800341e8                sys_mbox_valid
                0xffffffff800343f4                sys_sem_new
                0xffffffff80034300                sys_mbox_free
                0xffffffff80034450                sys_arch_protect
                0xffffffff800341f0                sys_mbox_set_invalid
                0xffffffff800343ec                sys_sem_free
                0xffffffff80034568                assert_printf
                0xffffffff80034308                sys_mbox_new
                0xffffffff80034348                sys_thread_new
                0xffffffff800341e0                sys_sem_set_invalid
                0xffffffff80034378                sys_arch_sem_wait
                0xffffffff800342c4                sys_now
                0xffffffff80034458                lwip_system_init
                0xffffffff80034448                sys_arch_unprotect
                0xffffffff800341d8                sys_sem_valid
                0xffffffff80034200                sys_arch_mbox_tryfetch
                0xffffffff800342f4                sys_mbox_post
 .text          0xffffffff800346a0     0x14f0 os/hardware/spi_flash.o
                0xffffffff800351b8                fl_program_device
                0xffffffff80034f64                chipErase
                0xffffffff80034704                ls1x_spi_readb
                0xffffffff8003476c                tgt_flashmap
                0xffffffff80034d14                spi_flash_read_area
                0xffffffff800347f8                tgt_flashwrite_disable
                0xffffffff80034b0c                fl_devident
                0xffffffff80034e1c                write_enable
                0xffffffff800354f4                spi_flash_erase_area
                0xffffffff80034c04                findNorFlashType
                0xffffffff80034df8                read_flash_data
                0xffffffff800358c8                tgt_flashprogram
                0xffffffff800347f0                tgt_flashwrite_enable
                0xffffffff800346a0                ls1x_spi_writeb
                0xffffffff80034cb8                read_status
                0xffffffff80034778                fl_find_map
                0xffffffff800347c8                ls1x_spi_flash_ren
                0xffffffff80035030                write_status
                0xffffffff80035604                fl_erase_device
                0xffffffff80035adc                ls1x_spi_probe
                0xffffffff800349dc                ls1x_spi_chipselect
                0xffffffff800359cc                spi_flash_erase_sector
                0xffffffff80035684                fl_verify_device
                0xffffffff800350a8                spi_flash_write_area
                0xffffffff80034800                tgt_flashinfo
 .text          0xffffffff80035b90       0x40 os/hardware/reboot.o
                0xffffffff80035b90                reboot
 .text          0xffffffff80035bd0      0x4b0 os/filesys/netio.o
                0xffffffff80035c1c                netwrite
                0xffffffff80035f14                netopen
                0xffffffff80035bd0                netfs_init
                0xffffffff80035c84                netclose
                0xffffffff80035c50                netlseek
                0xffffffff80035d14                parseUrl
                0xffffffff80035be8                netread
                0xffffffff80035cc4                netioctl
                0xffffffff80035cb8                init_fs_netfs
 .text          0xffffffff80036080     0x1110 os/filesys/tftplib.o
                0xffffffff80036140                getservent
                0xffffffff80036080                setservent
                0xffffffff80036134                init_netfs_tftp
                0xffffffff80036dcc                getservbyname
                0xffffffff8003608c                endservent
 .text          0xffffffff80037190      0xc00 os/filesys/filesys.o
                0xffffffff80037740                ioctl
                0xffffffff8003744c                filefs_init
                0xffffffff80037408                lseek
                0xffffffff80037190                strbequ
                0xffffffff800373c4                read
                0xffffffff80037668                tftpOpen
                0xffffffff80037464                strposn
                0xffffffff800377ac                strpat
                0xffffffff80037510                updateLuojios
                0xffffffff80037970                open
                0xffffffff80037be8                tftpOpenEntry
                0xffffffff8003737c                close
 .text          0xffffffff80037d90      0xd00 os/filesys/loadelf.o
                0xffffffff80037dd4                newsym
                0xffffffff80037fc0                highmemcpy
                0xffffffff80037d98                dl_checkloadaddr
                0xffffffff80037fe8                load_elf
                0xffffffff80037d90                md_valid_load_addr
                0xffffffff80037f98                highmemset
                0xffffffff80037da0                dl_checksetloadaddr
 .text          0xffffffff80038a90      0x1f0 os/filesys/load.o
                0xffffffff80038a90                go
                0xffffffff80038b6c                loadelf
                0xffffffff80038bac                do_loadelf
 *(.rodata)
 .rodata        0xffffffff80038c80      0x1d0 lib/start.o
 .rodata        0xffffffff80038e50       0x50 lib/ls1c_pin.o
 .rodata        0xffffffff80038ea0       0x10 lib/ls1c_clock.o
 .rodata        0xffffffff80038eb0      0x180 lib/ls1c_uart.o
 .rodata        0xffffffff80039030       0x20 lib/ls1c_spi.o
 .rodata        0xffffffff80039050       0xd0 lib/ls1c_pwm.o
 .rodata        0xffffffff80039120       0x20 example/test_can.o
 .rodata        0xffffffff80039140       0x10 example/test_i2c.o
 .rodata        0xffffffff80039150       0x60 example/test_fpu.o
 .rodata        0xffffffff800391b0       0x10 example/test_timer.o
 .rodata        0xffffffff800391c0       0x20 example/test_gpio.o
 .rodata        0xffffffff800391e0       0x10 example/test_sys_tick.o
 .rodata        0xffffffff800391f0       0x70 example/test_uart.o
 .rodata        0xffffffff80039260       0xe0 example/test_spi.o
                0xffffffff80039260                tm7705_ntc_temptable
 .rodata        0xffffffff80039340       0x20 example/test_simulate_i2c.o
 .rodata        0xffffffff80039360      0x110 libc/ctype.o
                0xffffffff80039360                _C_ctype_
 .rodata        0xffffffff80039470      0x210 libc/toupper.o
                0xffffffff80039470                _C_toupper_
 .rodata        0xffffffff80039680       0x90 libc/vsprintf.o
 .rodata        0xffffffff80039710       0x30 libm/e_pow.o
 .rodata        0xffffffff80039740       0x30 os/mem.o
 .rodata        0xffffffff80039770       0x20 os/env.o
 .rodata        0xffffffff80039790      0x1c0 os/common_fun.o
 .rodata        0xffffffff80039950      0x1e0 os/thread.o
                0xffffffff80039958                __lowest_bit_bitmap
 .rodata        0xffffffff80039b30       0x50 os/net/synMain.o
 .rodata        0xffffffff80039b80       0x40 os/net/lwip-1.4.1/src/core/memp.o
 .rodata        0xffffffff80039bc0       0x30 os/net/lwip-1.4.1/src/core/tcp_in.o
 .rodata        0xffffffff80039bf0       0x80 os/net/lwip-1.4.1/src/core/tcp.o
                0xffffffff80039c4c                tcp_persist_backoff
                0xffffffff80039c10                tcp_state_str
                0xffffffff80039c54                tcp_pcb_lists
                0xffffffff80039c3c                tcp_backoff
 .rodata        0xffffffff80039c70       0x10 os/net/lwip-1.4.1/src/core/ipv4/ip_addr.o
                0xffffffff80039c70                ip_addr_any
                0xffffffff80039c74                ip_addr_broadcast
 .rodata        0xffffffff80039c80       0x30 os/net/lwip-1.4.1/src/api/tcpip.o
 .rodata        0xffffffff80039cb0       0xe0 os/net/lwip-1.4.1/src/api/sockets.o
 .rodata        0xffffffff80039d90       0x10 os/net/lwip-1.4.1/src/netif/etharp.o
                0xffffffff80039d90                ethbroadcast
                0xffffffff80039d98                ethzero
 .rodata        0xffffffff80039da0       0x70 os/net/lwip-1.4.1/src/netif/ethernetif.o
 .rodata        0xffffffff80039e10       0x50 os/filesys/tftplib.o
 *(.rodata.*)
 .rodata.str1.4
                0xffffffff80039e60       0x73 lib/ls1c_can.o
                                         0x74 (size before relaxing)
 *fill*         0xffffffff80039ed3        0x1 00000000
 .rodata.str1.4
                0xffffffff80039ed4       0x2a lib/ls1c_timer.o
                                         0x2c (size before relaxing)
 *fill*         0xffffffff80039efe        0x2 00000000
 .rodata.str1.4
                0xffffffff80039f00       0x1c lib/ls1c_irq.o
 .rodata.str1.4
                0xffffffff80039f1c       0x63 lib/ls1c_clock.o
                                         0x68 (size before relaxing)
 *fill*         0xffffffff80039f7f        0x1 00000000
 .rodata.str1.4
                0xffffffff80039f80       0x9a lib/ls1c_spi.o
                                         0x9c (size before relaxing)
 *fill*         0xffffffff8003a01a        0x6 00000000
 .rodata.cst8   0xffffffff8003a020       0x18 lib/ls1c_pwm.o
 .rodata.cst4   0xffffffff8003a038        0x4 lib/ls1c_pwm.o
 .rodata.str1.4
                0xffffffff8003a03c      0x218 example/test_can.o
                                        0x224 (size before relaxing)
 .rodata.str1.4
                0xffffffff8003a254       0x4b example/test_i2c.o
                                         0x4c (size before relaxing)
 *fill*         0xffffffff8003a29f        0x1 00000000
 .rodata.str1.4
                0xffffffff8003a2a0       0x5a example/test_fpu.o
                                         0x5c (size before relaxing)
 *fill*         0xffffffff8003a2fa        0x2 00000000
 .rodata.cst4   0xffffffff8003a2fc        0xc example/test_fpu.o
 .rodata.cst8   0xffffffff8003a308       0x18 example/test_fpu.o
 .rodata.str1.4
                0xffffffff8003a320       0x26 example/test_timer.o
                                         0x28 (size before relaxing)
 *fill*         0xffffffff8003a346        0x2 00000000
 .rodata.str1.4
                0xffffffff8003a348       0x1b example/test_gpio.o
                                         0x1c (size before relaxing)
 *fill*         0xffffffff8003a363        0x1 00000000
 .rodata.str1.4
                0xffffffff8003a364       0x6b example/test_sys_tick.o
                                         0x6c (size before relaxing)
 *fill*         0xffffffff8003a3cf        0x1 00000000
 .rodata.str1.4
                0xffffffff8003a3d0       0xfd example/test_uart.o
                                        0x100 (size before relaxing)
 *fill*         0xffffffff8003a4cd        0x3 00000000
 .rodata.cst4   0xffffffff8003a4d0        0x4 example/test_uart.o
 .rodata.str1.4
                0xffffffff8003a4d4       0x80 example/test_spi.o
 .rodata.cst4   0xffffffff8003a554        0x8 example/test_spi.o
 .rodata.str1.4
                0xffffffff8003a55c       0x8f example/test_simulate_i2c.o
                                         0xc4 (size before relaxing)
 *fill*         0xffffffff8003a5eb        0x1 00000000
 .rodata.cst4   0xffffffff8003a5ec        0x4 example/test_pwm.o
 .rodata.cst8   0xffffffff8003a5f0       0x10 libc/modf.o
 .rodata.str1.4
                0xffffffff8003a600       0x1e libc/scanf.o
                                         0x20 (size before relaxing)
 *fill*         0xffffffff8003a61e        0x2 00000000
 .rodata.str1.4
                0xffffffff8003a620        0x2 libc/atob.o
                                          0x4 (size before relaxing)
 *fill*         0xffffffff8003a622        0x2 00000000
 .rodata.str1.4
                0xffffffff8003a624       0x42 libc/vsprintf.o
                                         0x44 (size before relaxing)
 *fill*         0xffffffff8003a666        0x2 00000000
 .rodata.cst8   0xffffffff8003a668       0x20 libc/vsprintf.o
 .rodata.str1.4
                0x0000000000000000       0x42 libc/str_fmt.o
                                          0x4 (size before relaxing)
 .rodata.cst8   0xffffffff8003a688       0x20 libm/s_scalbn.o
 .rodata.cst8   0xffffffff8003a6a8       0xe0 libm/e_pow.o
                                         0xf8 (size before relaxing)
 .rodata.str1.4
                0xffffffff8003a788      0x37e os/mem.o
                                        0x384 (size before relaxing)
 *fill*         0xffffffff8003ab06        0x2 00000000
 .rodata.name   0xffffffff8003ab08       0x20 os/mem.o
                0xffffffff8003ab18                __fsym___cmd_list_mem_desc
                0xffffffff8003ab08                __fsym___cmd_list_mem_name
 .rodata.str1.4
                0xffffffff8003ab28      0x227 os/env.o
                                        0x22c (size before relaxing)
 *fill*         0xffffffff8003ad4f        0x1 00000000
 .rodata.name   0xffffffff8003ad50       0x40 os/env.o
                0xffffffff8003ad50                __fsym___cmd_clearEnv_name
                0xffffffff8003ad80                __fsym___cmd_set_desc
                0xffffffff8003ad74                __fsym___cmd_set_name
                0xffffffff8003ad60                __fsym___cmd_clearEnv_desc
 .rodata.str1.4
                0xffffffff8003ad90       0xe8 os/common_fun.o
                                         0xec (size before relaxing)
 .rodata.str1.4
                0xffffffff8003ae78       0xa4 os/os.o
 .rodata.str1.4
                0xffffffff8003af1c       0xd3 os/shell.o
                                         0xdc (size before relaxing)
 *fill*         0xffffffff8003afef        0x1 00000000
 .rodata.name   0xffffffff8003aff0       0x14 os/shell.o
                0xffffffff8003aff0                __fsym___cmd_help_name
                0xffffffff8003affc                __fsym___cmd_help_desc
 .rodata.str1.4
                0xffffffff8003b004      0x4d9 os/thread.o
                                        0x524 (size before relaxing)
 *fill*         0xffffffff8003b4dd        0x3 00000000
 .rodata.name   0xffffffff8003b4e0       0x8c os/thread.o
                0xffffffff8003b538                __fsym___cmd_showThreadStack_name
                0xffffffff8003b4f4                __fsym___cmd_list_thread_desc
                0xffffffff8003b4e0                __fsym___cmd_list_thread_name
                0xffffffff8003b550                __fsym___cmd_showThreadStack_desc
                0xffffffff8003b50c                __fsym___cmd_kill_name
                0xffffffff8003b518                __fsym___cmd_kill_desc
 .rodata.str1.4
                0xffffffff8003b56c      0x39c os/net/synMain.o
                                        0x3cc (size before relaxing)
 .rodata.str1.4
                0xffffffff8003b908       0x1d os/net/synopGMAC_Dev.o
                                         0x20 (size before relaxing)
 *fill*         0xffffffff8003b925        0x3 00000000
 .rodata.str1.4
                0xffffffff8003b928       0x27 os/net/lwip-1.4.1/src/core/memp.o
                                         0x28 (size before relaxing)
 *fill*         0xffffffff8003b94f        0x1 00000000
 .rodata.str1.4
                0xffffffff8003b950        0xf os/net/lwip-1.4.1/src/core/dns.o
                                         0x10 (size before relaxing)
 *fill*         0xffffffff8003b95f        0x1 00000000
 .rodata.str1.4
                0xffffffff8003b960       0x76 os/net/lwip-1.4.1/src/core/tcp.o
                                         0x78 (size before relaxing)
 *fill*         0xffffffff8003b9d6        0x2 00000000
 .rodata.str1.4
                0xffffffff8003b9d8       0x5e os/net/lwip-1.4.1/src/api/tcpip.o
                                         0x60 (size before relaxing)
 *fill*         0xffffffff8003ba36        0x2 00000000
 .rodata.str1.4
                0xffffffff8003ba38      0x19d os/net/lwip-1.4.1/src/netif/ethernetif.o
                                        0x1b4 (size before relaxing)
 *fill*         0xffffffff8003bbd5        0x3 00000000
 .rodata.name   0xffffffff8003bbd8       0x20 os/net/lwip-1.4.1/src/netif/ethernetif.o
                0xffffffff8003bbe8                __fsym___cmd_list_if_desc
                0xffffffff8003bbd8                __fsym___cmd_list_if_name
 .rodata.str1.4
                0xffffffff8003bbf8       0x2e os/net/lwip-1.4.1/src/arch/sys_arch.o
                                         0x30 (size before relaxing)
 *fill*         0xffffffff8003bc26        0x2 00000000
 .rodata.str1.4
                0xffffffff8003bc28      0x19e os/hardware/spi_flash.o
                                        0x1a4 (size before relaxing)
 *fill*         0xffffffff8003bdc6        0x2 00000000
 .rodata.str1.4
                0xffffffff8003bdc8        0xe os/hardware/reboot.o
                                         0x10 (size before relaxing)
 *fill*         0xffffffff8003bdd6        0x2 00000000
 .rodata.name   0xffffffff8003bdd8       0x20 os/hardware/reboot.o
                0xffffffff8003bdd8                __fsym___cmd_reboot_name
                0xffffffff8003bde8                __fsym___cmd_reboot_desc
 .rodata.str1.4
                0xffffffff8003bdf8       0x54 os/filesys/netio.o
                                         0x58 (size before relaxing)
 .rodata.str1.4
                0xffffffff8003be4c      0x15b os/filesys/tftplib.o
                                        0x15c (size before relaxing)
 *fill*         0xffffffff8003bfa7        0x1 00000000
 .rodata.str1.4
                0xffffffff8003bfa8      0x192 os/filesys/filesys.o
                                        0x1c4 (size before relaxing)
 *fill*         0xffffffff8003c13a        0x2 00000000
 .rodata.name   0xffffffff8003c13c       0x5c os/filesys/filesys.o
                0xffffffff8003c14c                __fsym___cmd_tftpOpen_desc
                0xffffffff8003c164                __fsym___cmd_updateLuojios_name
                0xffffffff8003c13c                __fsym___cmd_tftpOpen_name
                0xffffffff8003c178                __fsym___cmd_updateLuojios_desc
 .rodata.str1.4
                0xffffffff8003c198      0x294 os/filesys/loadelf.o
 .rodata.str1.4
                0xffffffff8003c42c       0xac os/filesys/load.o
                                         0xc4 (size before relaxing)
 .rodata.name   0xffffffff8003c4d8       0x40 os/filesys/load.o
                0xffffffff8003c508                __fsym___cmd_go_desc
                0xffffffff8003c4d8                __fsym___cmd_loadelf_name
                0xffffffff8003c4e8                __fsym___cmd_loadelf_desc
                0xffffffff8003c4fc                __fsym___cmd_go_name
 *(.rodata1)
 *(.reginfo)
 .reginfo       0xffffffff8003c518       0x18 lib/start.o
 *(.init)
 *(.stub)
 *(.gnu.warning)
                0xffffffff8003c530                . = ALIGN (0x4)
                0xffffffff8003c530                __fsymtab_start = .
 *(FSymTab)
 FSymTab        0xffffffff8003c530        0xc os/mem.o
                0xffffffff8003c530                __fsym___cmd_list_mem
 FSymTab        0xffffffff8003c53c       0x18 os/env.o
                0xffffffff8003c548                __fsym___cmd_set
                0xffffffff8003c53c                __fsym___cmd_clearEnv
 FSymTab        0xffffffff8003c554        0xc os/shell.o
                0xffffffff8003c554                __fsym___cmd_help
 FSymTab        0xffffffff8003c560       0x24 os/thread.o
                0xffffffff8003c560                __fsym___cmd_list_thread
                0xffffffff8003c56c                __fsym___cmd_kill
                0xffffffff8003c578                __fsym___cmd_showThreadStack
 FSymTab        0xffffffff8003c584        0xc os/net/lwip-1.4.1/src/netif/ethernetif.o
                0xffffffff8003c584                __fsym___cmd_list_if
 FSymTab        0xffffffff8003c590        0xc os/hardware/reboot.o
                0xffffffff8003c590                __fsym___cmd_reboot
 FSymTab        0xffffffff8003c59c       0x18 os/filesys/filesys.o
                0xffffffff8003c59c                __fsym___cmd_tftpOpen
                0xffffffff8003c5a8                __fsym___cmd_updateLuojios
 FSymTab        0xffffffff8003c5b4       0x18 os/filesys/load.o
                0xffffffff8003c5b4                __fsym___cmd_loadelf
                0xffffffff8003c5c0                __fsym___cmd_go
                0xffffffff8003c5cc                __fsymtab_end = .
                0xffffffff8003c5cc                . = ALIGN (0x4)
                0xffffffff8003c5cc                . = ALIGN (0x4)
                0xffffffff8003c5cc                __rt_init_start = .
 *(SORT(.rti_fn*))
 .rti_fn.0      0xffffffff8003c5cc        0x4 os/os.o
                0xffffffff8003c5cc                __rt_init_rti_start
 .rti_fn.0.end  0xffffffff8003c5d0        0x4 os/os.o
                0xffffffff8003c5d0                __rt_init_rti_board_start
 .rti_fn.1.end  0xffffffff8003c5d4        0x4 os/os.o
                0xffffffff8003c5d4                __rt_init_rti_board_end
 .rti_fn.6.end  0xffffffff8003c5d8        0x4 os/os.o
                0xffffffff8003c5d8                __rt_init_rti_end
                0xffffffff8003c5dc                __rt_init_end = .
                0xffffffff8003c5dc                . = ALIGN (0x4)
                0xffffffff8003c5dc                _etext = .
                0xffffffff8003c5dc                PROVIDE (etext, .)

.rel.dyn        0xffffffff8003c5dc        0x0
 .rel.dyn       0x0000000000000000        0x0 libc/ctype.o

.fini
 *(.fini)

.data           0xffffffff8003c5e0      0xa20
                0xffffffff8003c5e0                _fdata = .
 *(.data)
 .data          0xffffffff8003c5e0        0x0 lib/start.o
 .data          0xffffffff8003c5e0        0x0 os/context_gcc.o
 .data          0xffffffff8003c5e0        0x0 lib/ls1c_delay.o
 .data          0xffffffff8003c5e0        0x0 lib/ls1c_cache.o
 .data          0xffffffff8003c5e0        0x0 lib/ls1c_can.o
 .data          0xffffffff8003c5e0        0x0 lib/ls1c_simulate_i2c.o
 .data          0xffffffff8003c5e0        0x0 lib/ls1c_timer.o
 .data          0xffffffff8003c5e0        0x0 lib/ls1c_pin.o
 .data          0xffffffff8003c5e0       0x10 lib/ls1c_irq.o
                0xffffffff8003c5e0                ls1c_hw0_icregs
 .data          0xffffffff8003c5f0        0x0 lib/ls1c_i2c.o
 .data          0xffffffff8003c5f0        0x0 lib/ls1c_public.o
 .data          0xffffffff8003c5f0        0x0 lib/ls1c_sys_tick.o
 .data          0xffffffff8003c5f0        0x0 lib/ls1c_clock.o
 .data          0xffffffff8003c5f0        0x0 lib/ls1c_uart.o
 .data          0xffffffff8003c5f0        0x0 lib/ls1c_spi.o
 .data          0xffffffff8003c5f0        0x0 lib/ls1c_gpio.o
 .data          0xffffffff8003c5f0        0x0 lib/ls1c_pwm.o
 .data          0xffffffff8003c5f0        0x0 example/test_delay.o
 .data          0xffffffff8003c5f0        0x0 example/test_can.o
 .data          0xffffffff8003c5f0        0x0 example/test_i2c.o
 .data          0xffffffff8003c5f0        0x0 example/test_fpu.o
 .data          0xffffffff8003c5f0        0x0 example/test_timer.o
 .data          0xffffffff8003c5f0        0x0 example/led.o
 .data          0xffffffff8003c5f0        0x0 example/test_gpio.o
 .data          0xffffffff8003c5f0        0x0 example/test_sys_tick.o
 .data          0xffffffff8003c5f0        0x0 example/test_uart.o
 .data          0xffffffff8003c5f0        0x0 example/test_spi.o
 .data          0xffffffff8003c5f0       0x10 example/test_simulate_i2c.o
                0xffffffff8003c5f0                am2320_info
 .data          0xffffffff8003c600        0x0 example/test_pwm.o
 .data          0xffffffff8003c600        0x0 app/main.o
 .data          0xffffffff8003c600       0x10 libc/ctype.o
                0xffffffff8003c600                _ctype_
 .data          0xffffffff8003c610        0x0 libc/printf.o
 .data          0xffffffff8003c610        0x0 libc/strcspn.o
 .data          0xffffffff8003c610        0x0 libc/sprintf.o
 .data          0xffffffff8003c610        0x0 libc/strstr.o
 .data          0xffffffff8003c610        0x0 libc/strlen.o
 .data          0xffffffff8003c610        0x0 libc/strcmp.o
 .data          0xffffffff8003c610        0x0 libc/strcpy.o
 .data          0xffffffff8003c610        0x0 libc/modf.o
 .data          0xffffffff8003c610        0x0 libc/memcpy.o
 .data          0xffffffff8003c610        0x0 libc/strichr.o
 .data          0xffffffff8003c610        0x0 libc/strcat.o
 .data          0xffffffff8003c610        0x0 libc/strtoupp.o
 .data          0xffffffff8003c610        0x0 libc/fls.o
 .data          0xffffffff8003c610        0x0 libc/scanf.o
 .data          0xffffffff8003c610       0x10 libc/toupper.o
                0xffffffff8003c610                _toupper_tab_
 .data          0xffffffff8003c620        0x0 libc/strncpy.o
 .data          0xffffffff8003c620        0x0 libc/atob.o
 .data          0xffffffff8003c620        0x0 libc/vsprintf.o
 .data          0xffffffff8003c620        0x0 libc/ffs.o
 .data          0xffffffff8003c620        0x0 libc/str_fmt.o
 .data          0xffffffff8003c620        0x0 libc/strchr.o
 .data          0xffffffff8003c620        0x0 libm/s_fabs.o
 .data          0xffffffff8003c620        0x0 libm/s_scalbn.o
 .data          0xffffffff8003c620        0x0 libm/e_pow.o
 .data          0xffffffff8003c620        0x0 libm/e_sqrt.o
 .data          0xffffffff8003c620        0x0 libm/s_copysign.o
 .data          0xffffffff8003c620       0x10 os/getchar.o
                0xffffffff8003c620                uart2
 .data          0xffffffff8003c630        0x0 os/mem.o
 .data          0xffffffff8003c630        0x0 os/testFun.o
 .data          0xffffffff8003c630        0x0 os/stdlib.o
 .data          0xffffffff8003c630       0x50 os/env.o
                0xffffffff8003c634                stdenvtab
                0xffffffff8003c630                bootRomSize
 .data          0xffffffff8003c680        0x0 os/common_fun.o
 .data          0xffffffff8003c680        0x0 os/os.o
 .data          0xffffffff8003c680        0x0 os/shell.o
 .data          0xffffffff8003c680       0x10 os/rand.o
 .data          0xffffffff8003c690        0x0 os/thread.o
 .data          0xffffffff8003c690       0x50 os/net/synMain.o
                0xffffffff8003c690                regbase
                0xffffffff8003c6c4                this_eth_dev_name
                0xffffffff8003c6a4                gateway_addr_mem
                0xffffffff8003c694                ip_addr_mem
                0xffffffff8003c6b4                mask_addr_mem
 .data          0xffffffff8003c6e0        0x0 os/net/mii.o
 .data          0xffffffff8003c6e0        0x0 os/net/synopGMAC_plat.o
 .data          0xffffffff8003c6e0        0x0 os/net/synopGMAC_Dev.o
 .data          0xffffffff8003c6e0        0x0 os/net/lwip-1.4.1/src/core/dhcp.o
 .data          0xffffffff8003c6e0        0x0 os/net/lwip-1.4.1/src/core/mem.o
 .data          0xffffffff8003c6e0        0x0 os/net/lwip-1.4.1/src/core/init.o
 .data          0xffffffff8003c6e0        0x0 os/net/lwip-1.4.1/src/core/memp.o
 .data          0xffffffff8003c6e0        0x0 os/net/lwip-1.4.1/src/core/sys.o
 .data          0xffffffff8003c6e0        0x0 os/net/lwip-1.4.1/src/core/tcp_in.o
 .data          0xffffffff8003c6e0        0x0 os/net/lwip-1.4.1/src/core/dns.o
 .data          0xffffffff8003c6e0        0x0 os/net/lwip-1.4.1/src/core/raw.o
 .data          0xffffffff8003c6e0       0x10 os/net/lwip-1.4.1/src/core/tcp.o
 .data          0xffffffff8003c6f0        0x0 os/net/lwip-1.4.1/src/core/def.o
 .data          0xffffffff8003c6f0        0x0 os/net/lwip-1.4.1/src/core/netif.o
 .data          0xffffffff8003c6f0        0x0 os/net/lwip-1.4.1/src/core/stats.o
 .data          0xffffffff8003c6f0        0x0 os/net/lwip-1.4.1/src/core/timers.o
 .data          0xffffffff8003c6f0        0x0 os/net/lwip-1.4.1/src/core/pbuf.o
 .data          0xffffffff8003c6f0       0x10 os/net/lwip-1.4.1/src/core/udp.o
 .data          0xffffffff8003c700        0x0 os/net/lwip-1.4.1/src/core/tcp_out.o
 .data          0xffffffff8003c700        0x0 os/net/lwip-1.4.1/src/core/ipv4/ip_frag.o
 .data          0xffffffff8003c700        0x0 os/net/lwip-1.4.1/src/core/ipv4/inet.o
 .data          0xffffffff8003c700        0x0 os/net/lwip-1.4.1/src/core/ipv4/ip_addr.o
 .data          0xffffffff8003c700        0x0 os/net/lwip-1.4.1/src/core/ipv4/igmp.o
 .data          0xffffffff8003c700        0x0 os/net/lwip-1.4.1/src/core/ipv4/ip.o
 .data          0xffffffff8003c700        0x0 os/net/lwip-1.4.1/src/core/ipv4/autoip.o
 .data          0xffffffff8003c700        0x0 os/net/lwip-1.4.1/src/core/ipv4/inet_chksum.o
 .data          0xffffffff8003c700        0x0 os/net/lwip-1.4.1/src/core/ipv4/icmp.o
 .data          0xffffffff8003c700        0x0 os/net/lwip-1.4.1/src/api/netdb.o
 .data          0xffffffff8003c700        0x0 os/net/lwip-1.4.1/src/api/api_lib.o
 .data          0xffffffff8003c700        0x0 os/net/lwip-1.4.1/src/api/netifapi.o
 .data          0xffffffff8003c700        0x0 os/net/lwip-1.4.1/src/api/tcpip.o
 .data          0xffffffff8003c700        0x0 os/net/lwip-1.4.1/src/api/netbuf.o
 .data          0xffffffff8003c700        0x0 os/net/lwip-1.4.1/src/api/err.o
 .data          0xffffffff8003c700        0x0 os/net/lwip-1.4.1/src/api/api_msg.o
 .data          0xffffffff8003c700        0x0 os/net/lwip-1.4.1/src/api/sockets.o
 .data          0xffffffff8003c700        0x0 os/net/lwip-1.4.1/src/netif/slipif.o
 .data          0xffffffff8003c700        0x0 os/net/lwip-1.4.1/src/netif/etharp.o
 .data          0xffffffff8003c700        0x0 os/net/lwip-1.4.1/src/netif/ethernetif.o
 .data          0xffffffff8003c700        0x0 os/net/lwip-1.4.1/src/arch/sys_arch.o
 .data          0xffffffff8003c700      0x100 os/hardware/spi_flash.o
                0xffffffff8003c700                fl_known_dev
                0xffffffff8003c7c0                tgt_fl_map_boot16
 .data          0xffffffff8003c800        0x0 os/hardware/reboot.o
 .data          0xffffffff8003c800       0x30 os/filesys/netio.o
 .data          0xffffffff8003c830       0x20 os/filesys/tftplib.o
 .data          0xffffffff8003c850       0x10 os/filesys/filesys.o
                0xffffffff8003c854                tftpBufSize
                0xffffffff8003c850                tftpEveryReadSize
 .data          0xffffffff8003c860        0x0 os/filesys/loadelf.o
 .data          0xffffffff8003c860        0x0 os/filesys/load.o
                0xffffffff8003c860                . = ALIGN (0x20)
 *(.data.align32)
                0xffffffff8003c880                . = ALIGN (0x40)
 *fill*         0xffffffff8003c860       0x20 00
 *(.data.align64)
                0xffffffff8003c880                . = ALIGN (0x80)
 *(.data.align128)
                0xffffffff8003d000                . = ALIGN (0x1000)
 *fill*         0xffffffff8003c880      0x780 00
 *(.data.align4096)

.data1
 *(.data1)

.ctors          0xffffffff8003d000        0x8
                0xffffffff8003d000                __CTOR_LIST__ = .
                0xffffffff8003d000        0x4 LONG 0x0 (((__CTOR_END__ - __CTOR_LIST__) / 0x4) - 0x2)
 *(.ctors)
                0xffffffff8003d004        0x4 LONG 0x0
                0xffffffff8003d008                __CTOR_END__ = .

.dtors          0xffffffff8003d008        0x8
                0xffffffff8003d008                __DTOR_LIST__ = .
                0xffffffff8003d008        0x4 LONG 0x0 (((__DTOR_END__ - __DTOR_LIST__) / 0x4) - 0x2)
 *(.dtors)
                0xffffffff8003d00c        0x4 LONG 0x0
                0xffffffff8003d010                __DTOR_END__ = .
                0xffffffff80045000                _gp = (ALIGN (0x10) + 0x7ff0)

.got
 *(.got.plt)
 *(.got)

.sdata
 *(.sdata)

.lit8
 *(.lit8)

.lit4
 *(.lit4)
                0xffffffff8003d010                _edata = .
                0xffffffff8003d010                PROVIDE (edata, .)
                0xffffffff8003d010                __bss_start = .
                0xffffffff8003d010                _fbss = .

.sbss
 *(.sbss)
 *(.scommon)

.bss            0xffffffff8003d010     0x6280
 *(.dynbss)
 *(.bss)
 .bss           0xffffffff8003d010        0x0 lib/start.o
 .bss           0xffffffff8003d010        0x0 os/context_gcc.o
 .bss           0xffffffff8003d010        0x0 lib/ls1c_delay.o
 .bss           0xffffffff8003d010        0x0 lib/ls1c_cache.o
 .bss           0xffffffff8003d010        0x0 lib/ls1c_can.o
 .bss           0xffffffff8003d010        0x0 lib/ls1c_simulate_i2c.o
 .bss           0xffffffff8003d010        0x0 lib/ls1c_timer.o
 .bss           0xffffffff8003d010        0x0 lib/ls1c_pin.o
 .bss           0xffffffff8003d010        0x0 lib/ls1c_irq.o
 .bss           0xffffffff8003d010        0x0 lib/ls1c_i2c.o
 .bss           0xffffffff8003d010        0x0 lib/ls1c_public.o
 .bss           0xffffffff8003d010       0x10 lib/ls1c_sys_tick.o
 .bss           0xffffffff8003d020        0x0 lib/ls1c_clock.o
 .bss           0xffffffff8003d020       0x10 lib/ls1c_uart.o
                0xffffffff8003d020                debug_uart_info
 .bss           0xffffffff8003d030        0x0 lib/ls1c_spi.o
 .bss           0xffffffff8003d030        0x0 lib/ls1c_gpio.o
 .bss           0xffffffff8003d030        0x0 lib/ls1c_pwm.o
 .bss           0xffffffff8003d030        0x0 example/test_delay.o
 .bss           0xffffffff8003d030        0x0 example/test_can.o
 .bss           0xffffffff8003d030        0x0 example/test_i2c.o
 .bss           0xffffffff8003d030        0x0 example/test_fpu.o
 .bss           0xffffffff8003d030       0x10 example/test_timer.o
                0xffffffff8003d038                test_timer_pwm0_irq_counter
                0xffffffff8003d030                timer_info
 .bss           0xffffffff8003d040        0x0 example/led.o
 .bss           0xffffffff8003d040       0x10 example/test_gpio.o
                0xffffffff8003d040                gpio_key_irq_flag
 .bss           0xffffffff8003d050        0x0 example/test_sys_tick.o
 .bss           0xffffffff8003d050        0x0 example/test_uart.o
 .bss           0xffffffff8003d050       0x10 example/test_spi.o
                0xffffffff8003d050                tm7705_spi_info
 .bss           0xffffffff8003d060        0x0 example/test_simulate_i2c.o
 .bss           0xffffffff8003d060        0x0 example/test_pwm.o
 .bss           0xffffffff8003d060        0x0 app/main.o
 .bss           0xffffffff8003d060        0x0 libc/ctype.o
 .bss           0xffffffff8003d060      0x800 libc/printf.o
 .bss           0xffffffff8003d860        0x0 libc/strcspn.o
 .bss           0xffffffff8003d860        0x0 libc/sprintf.o
 .bss           0xffffffff8003d860        0x0 libc/strstr.o
 .bss           0xffffffff8003d860        0x0 libc/strlen.o
 .bss           0xffffffff8003d860        0x0 libc/strcmp.o
 .bss           0xffffffff8003d860        0x0 libc/strcpy.o
 .bss           0xffffffff8003d860        0x0 libc/modf.o
 .bss           0xffffffff8003d860        0x0 libc/memcpy.o
 .bss           0xffffffff8003d860        0x0 libc/strichr.o
 .bss           0xffffffff8003d860        0x0 libc/strcat.o
 .bss           0xffffffff8003d860        0x0 libc/strtoupp.o
 .bss           0xffffffff8003d860        0x0 libc/fls.o
 .bss           0xffffffff8003d860        0x0 libc/scanf.o
 .bss           0xffffffff8003d860        0x0 libc/toupper.o
 .bss           0xffffffff8003d860        0x0 libc/strncpy.o
 .bss           0xffffffff8003d860        0x0 libc/atob.o
 .bss           0xffffffff8003d860        0x0 libc/vsprintf.o
 .bss           0xffffffff8003d860        0x0 libc/ffs.o
 .bss           0xffffffff8003d860        0x0 libc/str_fmt.o
 .bss           0xffffffff8003d860        0x0 libc/strchr.o
 .bss           0xffffffff8003d860        0x0 libm/s_fabs.o
 .bss           0xffffffff8003d860        0x0 libm/s_scalbn.o
 .bss           0xffffffff8003d860        0x0 libm/e_pow.o
 .bss           0xffffffff8003d860        0x0 libm/e_sqrt.o
 .bss           0xffffffff8003d860        0x0 libm/s_copysign.o
 .bss           0xffffffff8003d860        0x0 os/getchar.o
 .bss           0xffffffff8003d860       0x30 os/mem.o
 .bss           0xffffffff8003d890        0x0 os/testFun.o
 .bss           0xffffffff8003d890        0x0 os/stdlib.o
 .bss           0xffffffff8003d890       0x10 os/env.o
 .bss           0xffffffff8003d8a0       0x10 os/common_fun.o
 .bss           0xffffffff8003d8b0       0x10 os/os.o
                0xffffffff8003d8b8                rt_interrupt_to_thread
                0xffffffff8003d8b4                rt_interrupt_from_thread
                0xffffffff8003d8b0                rt_thread_switch_interrupt_flag
                0xffffffff8003d8bc                rt_interrupt_nest
 .bss           0xffffffff8003d8c0       0x10 os/shell.o
                0xffffffff8003d8c4                _syscall_table_end
                0xffffffff8003d8c0                _syscall_table_begin
 .bss           0xffffffff8003d8d0        0x0 os/rand.o
 .bss           0xffffffff8003d8d0       0x30 os/thread.o
                0xffffffff8003d8e0                schedule_printfCounter
                0xffffffff8003d8d4                counterS
                0xffffffff8003d8dc                schedule_printfFlag
                0xffffffff8003d8d8                schedule_printfFlagFront
                0xffffffff8003d8d0                rt_current_thread
 .bss           0xffffffff8003d900       0x20 os/net/synMain.o
 .bss           0xffffffff8003d920        0x0 os/net/mii.o
 .bss           0xffffffff8003d920        0x0 os/net/synopGMAC_plat.o
 .bss           0xffffffff8003d920        0x0 os/net/synopGMAC_Dev.o
 .bss           0xffffffff8003d920        0x0 os/net/lwip-1.4.1/src/core/dhcp.o
 .bss           0xffffffff8003d920        0x0 os/net/lwip-1.4.1/src/core/mem.o
 .bss           0xffffffff8003d920        0x0 os/net/lwip-1.4.1/src/core/init.o
 .bss           0xffffffff8003d920     0x2c00 os/net/lwip-1.4.1/src/core/memp.o
                0xffffffff8003d920                memp_malloc_counter
 .bss           0xffffffff80040520        0x0 os/net/lwip-1.4.1/src/core/sys.o
 .bss           0xffffffff80040520       0x30 os/net/lwip-1.4.1/src/core/tcp_in.o
 .bss           0xffffffff80040550      0x680 os/net/lwip-1.4.1/src/core/dns.o
 .bss           0xffffffff80040bd0        0x0 os/net/lwip-1.4.1/src/core/raw.o
 .bss           0xffffffff80040bd0       0x10 os/net/lwip-1.4.1/src/core/tcp.o
 .bss           0xffffffff80040be0        0x0 os/net/lwip-1.4.1/src/core/def.o
 .bss           0xffffffff80040be0       0x10 os/net/lwip-1.4.1/src/core/netif.o
 .bss           0xffffffff80040bf0        0x0 os/net/lwip-1.4.1/src/core/stats.o
 .bss           0xffffffff80040bf0       0x10 os/net/lwip-1.4.1/src/core/timers.o
 .bss           0xffffffff80040c00        0x0 os/net/lwip-1.4.1/src/core/pbuf.o
 .bss           0xffffffff80040c00        0x0 os/net/lwip-1.4.1/src/core/udp.o
 .bss           0xffffffff80040c00        0x0 os/net/lwip-1.4.1/src/core/tcp_out.o
 .bss           0xffffffff80040c00        0x0 os/net/lwip-1.4.1/src/core/ipv4/ip_frag.o
 .bss           0xffffffff80040c00        0x0 os/net/lwip-1.4.1/src/core/ipv4/inet.o
 .bss           0xffffffff80040c00       0x10 os/net/lwip-1.4.1/src/core/ipv4/ip_addr.o
 .bss           0xffffffff80040c10       0x10 os/net/lwip-1.4.1/src/core/ipv4/igmp.o
 .bss           0xffffffff80040c20       0x10 os/net/lwip-1.4.1/src/core/ipv4/ip.o
 .bss           0xffffffff80040c30        0x0 os/net/lwip-1.4.1/src/core/ipv4/autoip.o
 .bss           0xffffffff80040c30        0x0 os/net/lwip-1.4.1/src/core/ipv4/inet_chksum.o
 .bss           0xffffffff80040c30        0x0 os/net/lwip-1.4.1/src/core/ipv4/icmp.o
 .bss           0xffffffff80040c30       0x30 os/net/lwip-1.4.1/src/api/netdb.o
 .bss           0xffffffff80040c60        0x0 os/net/lwip-1.4.1/src/api/api_lib.o
 .bss           0xffffffff80040c60        0x0 os/net/lwip-1.4.1/src/api/netifapi.o
 .bss           0xffffffff80040c60       0x10 os/net/lwip-1.4.1/src/api/tcpip.o
 .bss           0xffffffff80040c70        0x0 os/net/lwip-1.4.1/src/api/netbuf.o
 .bss           0xffffffff80040c70        0x0 os/net/lwip-1.4.1/src/api/err.o
 .bss           0xffffffff80040c70        0x0 os/net/lwip-1.4.1/src/api/api_msg.o
 .bss           0xffffffff80040c70       0xd0 os/net/lwip-1.4.1/src/api/sockets.o
 .bss           0xffffffff80040d40        0x0 os/net/lwip-1.4.1/src/netif/slipif.o
 .bss           0xffffffff80040d40       0xd0 os/net/lwip-1.4.1/src/netif/etharp.o
 .bss           0xffffffff80040e10      0x110 os/net/lwip-1.4.1/src/netif/ethernetif.o
 .bss           0xffffffff80040f20       0x10 os/net/lwip-1.4.1/src/arch/sys_arch.o
 .bss           0xffffffff80040f30       0x10 os/hardware/spi_flash.o
 .bss           0xffffffff80040f40        0x0 os/hardware/reboot.o
 .bss           0xffffffff80040f40       0x10 os/filesys/netio.o
                0xffffffff80040f40                NetFileSystems
 .bss           0xffffffff80040f50      0x730 os/filesys/tftplib.o
 .bss           0xffffffff80041680       0xb0 os/filesys/filesys.o
                0xffffffff80041680                _file
                0xffffffff80041720                FileSystems
 .bss           0xffffffff80041730       0x30 os/filesys/loadelf.o
                0xffffffff80041740                dl_Oloadbuffer
                0xffffffff80041738                dl_loffset
                0xffffffff80041730                kmempos
 .bss           0xffffffff80041760      0x810 os/filesys/load.o
                0xffffffff80041760                go_thread
                0xffffffff80041f80                . = ALIGN (0x20)
 *fill*         0xffffffff80041f70       0x10 00
 *(.bss.align32)
                0xffffffff80041f80                . = ALIGN (0x40)
 *(.bss.align64)
                0xffffffff80041f80                . = ALIGN (0x80)
 *(.bss.align128)
                0xffffffff80042000                . = ALIGN (0x1000)
 *fill*         0xffffffff80041f80       0x80 00
 *(.bss.align4096)
 *(COMMON)
 COMMON         0xffffffff80042000      0x800 os/context_gcc.o
                0xffffffff80042000                LOAD_THREAD
                0xffffffff80042400                LOAD_THREAD_STACK
 COMMON         0xffffffff80042800       0x20 lib/ls1c_cache.o
                0xffffffff80042800                dcache_desc
                0xffffffff80042810                icache_desc
 COMMON         0xffffffff80042820      0x580 lib/ls1c_irq.o
                0xffffffff80042820                irq_handlers
                0xffffffff80042d20                exception_handlers
 COMMON         0xffffffff80042da0       0x28 example/test_can.o
                0xffffffff80042da0                TxMessage
                0xffffffff80042db4                RxMessage
 COMMON         0xffffffff80042dc8        0x4 os/getchar.o
                0xffffffff80042dc8                uart2_rx_fifo
 COMMON         0xffffffff80042dcc      0x200 os/env.o
                0xffffffff80042dcc                envvar
 COMMON         0xffffffff80042fcc        0x4 os/shell.o
                0xffffffff80042fcc                shell
 COMMON         0xffffffff80042fd0      0x124 os/thread.o
                0xffffffff80042fd0                rt_thread_priority_table
                0xffffffff800430d0                rt_thread_dead
                0xffffffff800430d8                rt_current_priority
                0xffffffff800430dc                rt_all_thread
                0xffffffff800430e4                rt_assert_hook
                0xffffffff800430e8                rt_thread_ready_priority_group
                0xffffffff800430ec                rt_timer_list
 COMMON         0xffffffff800430f4       0x80 os/net/synMain.o
                0xffffffff800430f4                this_eth_dev
 COMMON         0xffffffff80043174        0x4 os/net/synopGMAC_Dev.o
                0xffffffff80043174                len
 COMMON         0xffffffff80043178        0x4 os/net/lwip-1.4.1/src/core/tcp_in.o
                0xffffffff80043178                tcp_input_pcb
 COMMON         0xffffffff8004317c       0x1c os/net/lwip-1.4.1/src/core/tcp.o
                0xffffffff8004317c                tcp_active_pcbs_changed
                0xffffffff80043180                tcp_active_pcbs
                0xffffffff80043184                tcp_ticks
                0xffffffff80043188                tcp_listen_pcbs
                0xffffffff8004318c                tcp_tmp_pcb
                0xffffffff80043190                tcp_bound_pcbs
                0xffffffff80043194                tcp_tw_pcbs
 COMMON         0xffffffff80043198        0x8 os/net/lwip-1.4.1/src/core/netif.o
                0xffffffff80043198                netif_list
                0xffffffff8004319c                netif_default
 COMMON         0xffffffff800431a0        0x1 os/net/lwip-1.4.1/src/core/pbuf.o
                0xffffffff800431a0                pbuf_free_ooseq_pending
 *fill*         0xffffffff800431a1        0x3 00
 COMMON         0xffffffff800431a4        0x4 os/net/lwip-1.4.1/src/core/udp.o
                0xffffffff800431a4                udp_pcbs
 COMMON         0xffffffff800431a8       0x10 os/net/lwip-1.4.1/src/core/ipv4/ip.o
                0xffffffff800431a8                current_iphdr_src
                0xffffffff800431ac                current_netif
                0xffffffff800431b0                current_iphdr_dest
                0xffffffff800431b4                current_header
 COMMON         0xffffffff800431b8        0x4 os/net/lwip-1.4.1/src/api/netdb.o
                0xffffffff800431b8                h_errno
 COMMON         0xffffffff800431bc       0x28 os/hardware/spi_flash.o
                0xffffffff800431bc                spi_flash
                0xffffffff800431cc                spi0
 COMMON         0xffffffff800431e4        0x4 os/filesys/tftplib.o
                0xffffffff800431e4                _serv_stayopen
 COMMON         0xffffffff800431e8       0x90 os/filesys/filesys.o
                0xffffffff800431e8                errno
                0xffffffff800431ec                tftpOpenfile
 COMMON         0xffffffff80043278       0x10 os/filesys/loadelf.o
                0xffffffff80043278                dl_entry
                0xffffffff8004327c                dl_offset
                0xffffffff80043280                dl_minaddr
                0xffffffff80043284                dl_maxaddr
 COMMON         0xffffffff80043288        0x8 os/filesys/load.o
                0xffffffff80043288                loadStack
                0xffffffff8004328c                loadEntry
                0xffffffff80043290                __bss_end = .
                0xffffffff80043290                _end = .
                0xffffffff80043290                PROVIDE (end_rom, .)

.stab
 *(.stab)

.stabstr
 *(.stabstr)

.debug
 *(.debug)

.debug_srcinfo
 *(.debug_srcinfo)

.debug_aranges  0x0000000000000000      0xca0
 *(.debug_aranges)
 .debug_aranges
                0x0000000000000000       0x20 lib/ls1c_delay.o
 .debug_aranges
                0x0000000000000020       0x20 lib/ls1c_cache.o
 .debug_aranges
                0x0000000000000040       0x20 lib/ls1c_can.o
 .debug_aranges
                0x0000000000000060       0x20 lib/ls1c_simulate_i2c.o
 .debug_aranges
                0x0000000000000080       0x20 lib/ls1c_timer.o
 .debug_aranges
                0x00000000000000a0       0x20 lib/ls1c_pin.o
 .debug_aranges
                0x00000000000000c0       0x20 lib/ls1c_irq.o
 .debug_aranges
                0x00000000000000e0       0x20 lib/ls1c_i2c.o
 .debug_aranges
                0x0000000000000100       0x20 lib/ls1c_public.o
 .debug_aranges
                0x0000000000000120       0x20 lib/ls1c_sys_tick.o
 .debug_aranges
                0x0000000000000140       0x20 lib/ls1c_clock.o
 .debug_aranges
                0x0000000000000160       0x20 lib/ls1c_uart.o
 .debug_aranges
                0x0000000000000180       0x20 lib/ls1c_spi.o
 .debug_aranges
                0x00000000000001a0       0x20 lib/ls1c_gpio.o
 .debug_aranges
                0x00000000000001c0       0x20 lib/ls1c_pwm.o
 .debug_aranges
                0x00000000000001e0       0x20 example/test_delay.o
 .debug_aranges
                0x0000000000000200       0x20 example/test_can.o
 .debug_aranges
                0x0000000000000220       0x20 example/test_i2c.o
 .debug_aranges
                0x0000000000000240       0x20 example/test_fpu.o
 .debug_aranges
                0x0000000000000260       0x20 example/test_timer.o
 .debug_aranges
                0x0000000000000280       0x20 example/led.o
 .debug_aranges
                0x00000000000002a0       0x20 example/test_gpio.o
 .debug_aranges
                0x00000000000002c0       0x20 example/test_sys_tick.o
 .debug_aranges
                0x00000000000002e0       0x20 example/test_uart.o
 .debug_aranges
                0x0000000000000300       0x20 example/test_spi.o
 .debug_aranges
                0x0000000000000320       0x20 example/test_simulate_i2c.o
 .debug_aranges
                0x0000000000000340       0x20 example/test_pwm.o
 .debug_aranges
                0x0000000000000360       0x20 app/main.o
 .debug_aranges
                0x0000000000000380       0x20 libc/printf.o
 .debug_aranges
                0x00000000000003a0       0x20 libc/strcspn.o
 .debug_aranges
                0x00000000000003c0       0x20 libc/sprintf.o
 .debug_aranges
                0x00000000000003e0       0x20 libc/strstr.o
 .debug_aranges
                0x0000000000000400       0x20 libc/strlen.o
 .debug_aranges
                0x0000000000000420       0x20 libc/strcmp.o
 .debug_aranges
                0x0000000000000440       0x20 libc/strcpy.o
 .debug_aranges
                0x0000000000000460       0x20 libc/modf.o
 .debug_aranges
                0x0000000000000480       0x20 libc/memcpy.o
 .debug_aranges
                0x00000000000004a0       0x20 libc/strichr.o
 .debug_aranges
                0x00000000000004c0       0x20 libc/strcat.o
 .debug_aranges
                0x00000000000004e0       0x20 libc/strtoupp.o
 .debug_aranges
                0x0000000000000500       0x20 libc/fls.o
 .debug_aranges
                0x0000000000000520       0x20 libc/scanf.o
 .debug_aranges
                0x0000000000000540       0x20 libc/toupper.o
 .debug_aranges
                0x0000000000000560       0x20 libc/strncpy.o
 .debug_aranges
                0x0000000000000580       0x20 libc/atob.o
 .debug_aranges
                0x00000000000005a0       0x20 libc/vsprintf.o
 .debug_aranges
                0x00000000000005c0       0x20 libc/ffs.o
 .debug_aranges
                0x00000000000005e0       0x20 libc/str_fmt.o
 .debug_aranges
                0x0000000000000600       0x20 libc/strchr.o
 .debug_aranges
                0x0000000000000620       0x20 libm/s_fabs.o
 .debug_aranges
                0x0000000000000640       0x20 libm/s_scalbn.o
 .debug_aranges
                0x0000000000000660       0x20 libm/e_pow.o
 .debug_aranges
                0x0000000000000680       0x20 libm/e_sqrt.o
 .debug_aranges
                0x00000000000006a0       0x20 libm/s_copysign.o
 .debug_aranges
                0x00000000000006c0       0x20 os/getchar.o
 .debug_aranges
                0x00000000000006e0       0x20 os/mem.o
 .debug_aranges
                0x0000000000000700       0x20 os/stdlib.o
 .debug_aranges
                0x0000000000000720       0x20 os/env.o
 .debug_aranges
                0x0000000000000740       0x20 os/common_fun.o
 .debug_aranges
                0x0000000000000760       0x20 os/os.o
 .debug_aranges
                0x0000000000000780       0x20 os/shell.o
 .debug_aranges
                0x00000000000007a0       0x20 os/rand.o
 .debug_aranges
                0x00000000000007c0       0x20 os/thread.o
 .debug_aranges
                0x00000000000007e0       0x20 os/net/synMain.o
 .debug_aranges
                0x0000000000000800       0x20 os/net/mii.o
 .debug_aranges
                0x0000000000000820       0x20 os/net/synopGMAC_plat.o
 .debug_aranges
                0x0000000000000840       0x20 os/net/synopGMAC_Dev.o
 .debug_aranges
                0x0000000000000860       0x20 os/net/lwip-1.4.1/src/core/init.o
 .debug_aranges
                0x0000000000000880       0x20 os/net/lwip-1.4.1/src/core/memp.o
 .debug_aranges
                0x00000000000008a0       0x20 os/net/lwip-1.4.1/src/core/sys.o
 .debug_aranges
                0x00000000000008c0       0x20 os/net/lwip-1.4.1/src/core/tcp_in.o
 .debug_aranges
                0x00000000000008e0       0x20 os/net/lwip-1.4.1/src/core/dns.o
 .debug_aranges
                0x0000000000000900       0x20 os/net/lwip-1.4.1/src/core/tcp.o
 .debug_aranges
                0x0000000000000920       0x20 os/net/lwip-1.4.1/src/core/def.o
 .debug_aranges
                0x0000000000000940       0x20 os/net/lwip-1.4.1/src/core/netif.o
 .debug_aranges
                0x0000000000000960       0x20 os/net/lwip-1.4.1/src/core/timers.o
 .debug_aranges
                0x0000000000000980       0x20 os/net/lwip-1.4.1/src/core/pbuf.o
 .debug_aranges
                0x00000000000009a0       0x20 os/net/lwip-1.4.1/src/core/udp.o
 .debug_aranges
                0x00000000000009c0       0x20 os/net/lwip-1.4.1/src/core/tcp_out.o
 .debug_aranges
                0x00000000000009e0       0x20 os/net/lwip-1.4.1/src/core/ipv4/ip_addr.o
 .debug_aranges
                0x0000000000000a00       0x20 os/net/lwip-1.4.1/src/core/ipv4/igmp.o
 .debug_aranges
                0x0000000000000a20       0x20 os/net/lwip-1.4.1/src/core/ipv4/ip.o
 .debug_aranges
                0x0000000000000a40       0x20 os/net/lwip-1.4.1/src/core/ipv4/inet_chksum.o
 .debug_aranges
                0x0000000000000a60       0x20 os/net/lwip-1.4.1/src/core/ipv4/icmp.o
 .debug_aranges
                0x0000000000000a80       0x20 os/net/lwip-1.4.1/src/api/netdb.o
 .debug_aranges
                0x0000000000000aa0       0x20 os/net/lwip-1.4.1/src/api/api_lib.o
 .debug_aranges
                0x0000000000000ac0       0x20 os/net/lwip-1.4.1/src/api/netifapi.o
 .debug_aranges
                0x0000000000000ae0       0x20 os/net/lwip-1.4.1/src/api/tcpip.o
 .debug_aranges
                0x0000000000000b00       0x20 os/net/lwip-1.4.1/src/api/netbuf.o
 .debug_aranges
                0x0000000000000b20       0x20 os/net/lwip-1.4.1/src/api/api_msg.o
 .debug_aranges
                0x0000000000000b40       0x20 os/net/lwip-1.4.1/src/api/sockets.o
 .debug_aranges
                0x0000000000000b60       0x20 os/net/lwip-1.4.1/src/netif/etharp.o
 .debug_aranges
                0x0000000000000b80       0x20 os/net/lwip-1.4.1/src/netif/ethernetif.o
 .debug_aranges
                0x0000000000000ba0       0x20 os/net/lwip-1.4.1/src/arch/sys_arch.o
 .debug_aranges
                0x0000000000000bc0       0x20 os/hardware/spi_flash.o
 .debug_aranges
                0x0000000000000be0       0x20 os/hardware/reboot.o
 .debug_aranges
                0x0000000000000c00       0x20 os/filesys/netio.o
 .debug_aranges
                0x0000000000000c20       0x20 os/filesys/tftplib.o
 .debug_aranges
                0x0000000000000c40       0x20 os/filesys/filesys.o
 .debug_aranges
                0x0000000000000c60       0x20 os/filesys/loadelf.o
 .debug_aranges
                0x0000000000000c80       0x20 os/filesys/load.o

.debug_pubnames
                0x0000000000000000     0x5a75
 *(.debug_pubnames)
 .debug_pubnames
                0x0000000000000000       0x38 lib/ls1c_delay.o
 .debug_pubnames
                0x0000000000000038       0xc2 lib/ls1c_cache.o
 .debug_pubnames
                0x00000000000000fa       0x53 lib/ls1c_can.o
 .debug_pubnames
                0x000000000000014d      0x1ca lib/ls1c_simulate_i2c.o
 .debug_pubnames
                0x0000000000000317       0x6e lib/ls1c_timer.o
 .debug_pubnames
                0x0000000000000385       0x38 lib/ls1c_pin.o
 .debug_pubnames
                0x00000000000003bd      0x15f lib/ls1c_irq.o
 .debug_pubnames
                0x000000000000051c      0x13d lib/ls1c_i2c.o
 .debug_pubnames
                0x0000000000000659       0x8a lib/ls1c_public.o
 .debug_pubnames
                0x00000000000006e3       0x89 lib/ls1c_sys_tick.o
 .debug_pubnames
                0x000000000000076c       0x8c lib/ls1c_clock.o
 .debug_pubnames
                0x00000000000007f8       0xdd lib/ls1c_uart.o
 .debug_pubnames
                0x00000000000008d5       0xc5 lib/ls1c_spi.o
 .debug_pubnames
                0x000000000000099a       0x79 lib/ls1c_gpio.o
 .debug_pubnames
                0x0000000000000a13       0x53 lib/ls1c_pwm.o
 .debug_pubnames
                0x0000000000000a66       0x4a example/test_delay.o
 .debug_pubnames
                0x0000000000000ab0       0x8c example/test_can.o
 .debug_pubnames
                0x0000000000000b3c       0x26 example/test_i2c.o
 .debug_pubnames
                0x0000000000000b62       0x7b example/test_fpu.o
 .debug_pubnames
                0x0000000000000bdd       0x73 example/test_timer.o
 .debug_pubnames
                0x0000000000000c50       0x36 example/led.o
 .debug_pubnames
                0x0000000000000c86       0x84 example/test_gpio.o
 .debug_pubnames
                0x0000000000000d0a       0x24 example/test_sys_tick.o
 .debug_pubnames
                0x0000000000000d2e       0xbf example/test_uart.o
 .debug_pubnames
                0x0000000000000ded      0x14d example/test_spi.o
 .debug_pubnames
                0x0000000000000f3a       0x79 example/test_simulate_i2c.o
 .debug_pubnames
                0x0000000000000fb3       0x54 example/test_pwm.o
 .debug_pubnames
                0x0000000000001007       0x35 app/main.o
 .debug_pubnames
                0x000000000000103c       0x2c libc/ctype.o
 .debug_pubnames
                0x0000000000001068       0x1d libc/printf.o
 .debug_pubnames
                0x0000000000001085       0x1e libc/strcspn.o
 .debug_pubnames
                0x00000000000010a3       0x1e libc/sprintf.o
 .debug_pubnames
                0x00000000000010c1       0x1d libc/strstr.o
 .debug_pubnames
                0x00000000000010de       0x1d libc/strlen.o
 .debug_pubnames
                0x00000000000010fb       0x1d libc/strcmp.o
 .debug_pubnames
                0x0000000000001118       0x29 libc/strcpy.o
 .debug_pubnames
                0x0000000000001141       0x1b libc/modf.o
 .debug_pubnames
                0x000000000000115c       0x28 libc/memcpy.o
 .debug_pubnames
                0x0000000000001184       0x1e libc/strichr.o
 .debug_pubnames
                0x00000000000011a2       0x1d libc/strcat.o
 .debug_pubnames
                0x00000000000011bf       0x21 libc/strtoupp.o
 .debug_pubnames
                0x00000000000011e0       0x1a libc/fls.o
 .debug_pubnames
                0x00000000000011fa       0x1d libc/scanf.o
 .debug_pubnames
                0x0000000000001217       0x40 libc/toupper.o
 .debug_pubnames
                0x0000000000001257       0x1e libc/strncpy.o
 .debug_pubnames
                0x0000000000001275       0x2f libc/atob.o
 .debug_pubnames
                0x00000000000012a4       0x1f libc/vsprintf.o
 .debug_pubnames
                0x00000000000012c3       0x1a libc/ffs.o
 .debug_pubnames
                0x00000000000012dd       0x1e libc/str_fmt.o
 .debug_pubnames
                0x00000000000012fb       0x1d libc/strchr.o
 .debug_pubnames
                0x0000000000001318       0x1b libm/s_fabs.o
 .debug_pubnames
                0x0000000000001333       0x1d libm/s_scalbn.o
 .debug_pubnames
                0x0000000000001350       0x2c libm/e_pow.o
 .debug_pubnames
                0x000000000000137c       0x2e libm/e_sqrt.o
 .debug_pubnames
                0x00000000000013aa       0x1f libm/s_copysign.o
 .debug_pubnames
                0x00000000000013c9       0x80 os/getchar.o
 .debug_pubnames
                0x0000000000001449      0x110 os/mem.o
 .debug_pubnames
                0x0000000000001559       0x1b os/stdlib.o
 .debug_pubnames
                0x0000000000001574      0x1c0 os/env.o
 .debug_pubnames
                0x0000000000001734       0x7f os/common_fun.o
 .debug_pubnames
                0x00000000000017b3      0x1b7 os/os.o
 .debug_pubnames
                0x000000000000196a      0x137 os/shell.o
 .debug_pubnames
                0x0000000000001aa1       0x30 os/rand.o
 .debug_pubnames
                0x0000000000001ad1      0x5d8 os/thread.o
 .debug_pubnames
                0x00000000000020a9      0x17c os/net/synMain.o
 .debug_pubnames
                0x0000000000002225       0x52 os/net/mii.o
 .debug_pubnames
                0x0000000000002277       0xd5 os/net/synopGMAC_plat.o
 .debug_pubnames
                0x000000000000234c     0x19c6 os/net/synopGMAC_Dev.o
 .debug_pubnames
                0x0000000000003d12       0x20 os/net/lwip-1.4.1/src/core/init.o
 .debug_pubnames
                0x0000000000003d32       0x56 os/net/lwip-1.4.1/src/core/memp.o
 .debug_pubnames
                0x0000000000003d88       0x21 os/net/lwip-1.4.1/src/core/sys.o
 .debug_pubnames
                0x0000000000003da9       0x32 os/net/lwip-1.4.1/src/core/tcp_in.o
 .debug_pubnames
                0x0000000000003ddb       0x65 os/net/lwip-1.4.1/src/core/dns.o
 .debug_pubnames
                0x0000000000003e40      0x2fa os/net/lwip-1.4.1/src/core/tcp.o
 .debug_pubnames
                0x000000000000413a       0x4e os/net/lwip-1.4.1/src/core/def.o
 .debug_pubnames
                0x0000000000004188      0x127 os/net/lwip-1.4.1/src/core/netif.o
 .debug_pubnames
                0x00000000000042af       0x7b os/net/lwip-1.4.1/src/core/timers.o
 .debug_pubnames
                0x000000000000432a      0x139 os/net/lwip-1.4.1/src/core/pbuf.o
 .debug_pubnames
                0x0000000000004463       0xc0 os/net/lwip-1.4.1/src/core/udp.o
 .debug_pubnames
                0x0000000000004523       0xdb os/net/lwip-1.4.1/src/core/tcp_out.o
 .debug_pubnames
                0x00000000000045fe       0xae os/net/lwip-1.4.1/src/core/ipv4/ip_addr.o
 .debug_pubnames
                0x00000000000046ac       0xae os/net/lwip-1.4.1/src/core/ipv4/igmp.o
 .debug_pubnames
                0x000000000000475a       0xb2 os/net/lwip-1.4.1/src/core/ipv4/ip.o
 .debug_pubnames
                0x000000000000480c       0x6d os/net/lwip-1.4.1/src/core/ipv4/inet_chksum.o
 .debug_pubnames
                0x0000000000004879       0x37 os/net/lwip-1.4.1/src/core/ipv4/icmp.o
 .debug_pubnames
                0x00000000000048b0       0x79 os/net/lwip-1.4.1/src/api/netdb.o
 .debug_pubnames
                0x0000000000004929      0x1a9 os/net/lwip-1.4.1/src/api/api_lib.o
 .debug_pubnames
                0x0000000000004ad2       0xb5 os/net/lwip-1.4.1/src/api/netifapi.o
 .debug_pubnames
                0x0000000000004b87      0x113 os/net/lwip-1.4.1/src/api/tcpip.o
 .debug_pubnames
                0x0000000000004c9a       0xa5 os/net/lwip-1.4.1/src/api/netbuf.o
 .debug_pubnames
                0x0000000000004d3f       0xfc os/net/lwip-1.4.1/src/api/api_msg.o
 .debug_pubnames
                0x0000000000004e3b      0x172 os/net/lwip-1.4.1/src/api/sockets.o
 .debug_pubnames
                0x0000000000004fad       0xb5 os/net/lwip-1.4.1/src/netif/etharp.o
 .debug_pubnames
                0x0000000000005062       0xd1 os/net/lwip-1.4.1/src/netif/ethernetif.o
 .debug_pubnames
                0x0000000000005133      0x1bd os/net/lwip-1.4.1/src/arch/sys_arch.o
 .debug_pubnames
                0x00000000000052f0      0x253 os/hardware/spi_flash.o
 .debug_pubnames
                0x0000000000005543       0x6f os/hardware/reboot.o
 .debug_pubnames
                0x00000000000055b2       0x9f os/filesys/netio.o
 .debug_pubnames
                0x0000000000005651       0x78 os/filesys/tftplib.o
 .debug_pubnames
                0x00000000000056c9      0x1c0 os/filesys/filesys.o
 .debug_pubnames
                0x0000000000005889       0xf3 os/filesys/loadelf.o
 .debug_pubnames
                0x000000000000597c       0xf9 os/filesys/load.o

.debug_sfnames
 *(.debug_sfnames)

.line
 *(.line)

.gptab.sdata
 *(.gptab.data)
 *(.gptab.sdata)

.gptab.sbss
 *(.gptab.bss)
 *(.gptab.sbss)
LOAD lib/start.o
LOAD os/context_gcc.o
LOAD lib/ls1c_delay.o
LOAD lib/ls1c_cache.o
LOAD lib/ls1c_can.o
LOAD lib/ls1c_simulate_i2c.o
LOAD lib/ls1c_timer.o
LOAD lib/ls1c_pin.o
LOAD lib/ls1c_irq.o
LOAD lib/ls1c_i2c.o
LOAD lib/ls1c_public.o
LOAD lib/ls1c_sys_tick.o
LOAD lib/ls1c_clock.o
LOAD lib/ls1c_uart.o
LOAD lib/ls1c_spi.o
LOAD lib/ls1c_gpio.o
LOAD lib/ls1c_pwm.o
LOAD example/test_delay.o
LOAD example/test_can.o
LOAD example/test_i2c.o
LOAD example/test_fpu.o
LOAD example/test_timer.o
LOAD example/led.o
LOAD example/test_gpio.o
LOAD example/test_sys_tick.o
LOAD example/test_uart.o
LOAD example/test_spi.o
LOAD example/test_simulate_i2c.o
LOAD example/test_pwm.o
LOAD app/main.o
LOAD libc/ctype.o
LOAD libc/printf.o
LOAD libc/strcspn.o
LOAD libc/sprintf.o
LOAD libc/strstr.o
LOAD libc/strlen.o
LOAD libc/strcmp.o
LOAD libc/strcpy.o
LOAD libc/modf.o
LOAD libc/memcpy.o
LOAD libc/strichr.o
LOAD libc/strcat.o
LOAD libc/strtoupp.o
LOAD libc/fls.o
LOAD libc/scanf.o
LOAD libc/toupper.o
LOAD libc/strncpy.o
LOAD libc/atob.o
LOAD libc/vsprintf.o
LOAD libc/ffs.o
LOAD libc/str_fmt.o
LOAD libc/strchr.o
LOAD libm/s_fabs.o
LOAD libm/s_scalbn.o
LOAD libm/e_pow.o
LOAD libm/e_sqrt.o
LOAD libm/s_copysign.o
LOAD os/getchar.o
LOAD os/mem.o
LOAD os/testFun.o
LOAD os/stdlib.o
LOAD os/env.o
LOAD os/common_fun.o
LOAD os/os.o
LOAD os/shell.o
LOAD os/rand.o
LOAD os/thread.o
LOAD os/net/synMain.o
LOAD os/net/mii.o
LOAD os/net/synopGMAC_plat.o
LOAD os/net/synopGMAC_Dev.o
LOAD os/net/lwip-1.4.1/src/core/dhcp.o
LOAD os/net/lwip-1.4.1/src/core/mem.o
LOAD os/net/lwip-1.4.1/src/core/init.o
LOAD os/net/lwip-1.4.1/src/core/memp.o
LOAD os/net/lwip-1.4.1/src/core/sys.o
LOAD os/net/lwip-1.4.1/src/core/tcp_in.o
LOAD os/net/lwip-1.4.1/src/core/dns.o
LOAD os/net/lwip-1.4.1/src/core/raw.o
LOAD os/net/lwip-1.4.1/src/core/tcp.o
LOAD os/net/lwip-1.4.1/src/core/def.o
LOAD os/net/lwip-1.4.1/src/core/netif.o
LOAD os/net/lwip-1.4.1/src/core/stats.o
LOAD os/net/lwip-1.4.1/src/core/timers.o
LOAD os/net/lwip-1.4.1/src/core/pbuf.o
LOAD os/net/lwip-1.4.1/src/core/udp.o
LOAD os/net/lwip-1.4.1/src/core/tcp_out.o
LOAD os/net/lwip-1.4.1/src/core/ipv4/ip_frag.o
LOAD os/net/lwip-1.4.1/src/core/ipv4/inet.o
LOAD os/net/lwip-1.4.1/src/core/ipv4/ip_addr.o
LOAD os/net/lwip-1.4.1/src/core/ipv4/igmp.o
LOAD os/net/lwip-1.4.1/src/core/ipv4/ip.o
LOAD os/net/lwip-1.4.1/src/core/ipv4/autoip.o
LOAD os/net/lwip-1.4.1/src/core/ipv4/inet_chksum.o
LOAD os/net/lwip-1.4.1/src/core/ipv4/icmp.o
LOAD os/net/lwip-1.4.1/src/api/netdb.o
LOAD os/net/lwip-1.4.1/src/api/api_lib.o
LOAD os/net/lwip-1.4.1/src/api/netifapi.o
LOAD os/net/lwip-1.4.1/src/api/tcpip.o
LOAD os/net/lwip-1.4.1/src/api/netbuf.o
LOAD os/net/lwip-1.4.1/src/api/err.o
LOAD os/net/lwip-1.4.1/src/api/api_msg.o
LOAD os/net/lwip-1.4.1/src/api/sockets.o
LOAD os/net/lwip-1.4.1/src/netif/slipif.o
LOAD os/net/lwip-1.4.1/src/netif/etharp.o
LOAD os/net/lwip-1.4.1/src/netif/ethernetif.o
LOAD os/net/lwip-1.4.1/src/arch/sys_arch.o
LOAD os/hardware/spi_flash.o
LOAD os/hardware/reboot.o
LOAD os/filesys/netio.o
LOAD os/filesys/tftplib.o
LOAD os/filesys/filesys.o
LOAD os/filesys/loadelf.o
LOAD os/filesys/load.o
OUTPUT(luojios.elf elf32-tradlittlemips)

.pdr            0x0000000000000000     0x7460
 .pdr           0x0000000000000000      0x160 lib/start.o
 .pdr           0x0000000000000160        0x0 os/context_gcc.o
 .pdr           0x0000000000000160       0x60 lib/ls1c_delay.o
 .pdr           0x00000000000001c0       0xa0 lib/ls1c_cache.o
 .pdr           0x0000000000000260       0xc0 lib/ls1c_can.o
 .pdr           0x0000000000000320      0x200 lib/ls1c_simulate_i2c.o
 .pdr           0x0000000000000520       0xa0 lib/ls1c_timer.o
 .pdr           0x00000000000005c0       0x40 lib/ls1c_pin.o
 .pdr           0x0000000000000600      0x1a0 lib/ls1c_irq.o
 .pdr           0x00000000000007a0      0x200 lib/ls1c_i2c.o
 .pdr           0x00000000000009a0       0xe0 lib/ls1c_public.o
 .pdr           0x0000000000000a80       0xc0 lib/ls1c_sys_tick.o
 .pdr           0x0000000000000b40       0xc0 lib/ls1c_clock.o
 .pdr           0x0000000000000c00      0x140 lib/ls1c_uart.o
 .pdr           0x0000000000000d40      0x140 lib/ls1c_spi.o
 .pdr           0x0000000000000e80       0xc0 lib/ls1c_gpio.o
 .pdr           0x0000000000000f40       0x80 lib/ls1c_pwm.o
 .pdr           0x0000000000000fc0       0x60 example/test_delay.o
 .pdr           0x0000000000001020       0xa0 example/test_can.o
 .pdr           0x00000000000010c0       0x20 example/test_i2c.o
 .pdr           0x00000000000010e0       0xa0 example/test_fpu.o
 .pdr           0x0000000000001180       0x40 example/test_timer.o
 .pdr           0x00000000000011c0       0x60 example/led.o
 .pdr           0x0000000000001220       0x80 example/test_gpio.o
 .pdr           0x00000000000012a0       0x20 example/test_sys_tick.o
 .pdr           0x00000000000012c0       0xe0 example/test_uart.o
 .pdr           0x00000000000013a0      0x180 example/test_spi.o
 .pdr           0x0000000000001520       0x80 example/test_simulate_i2c.o
 .pdr           0x00000000000015a0       0x60 example/test_pwm.o
 .pdr           0x0000000000001600       0x60 app/main.o
 .pdr           0x0000000000001660        0x0 libc/ctype.o
 .pdr           0x0000000000001660       0x20 libc/printf.o
 .pdr           0x0000000000001680       0x20 libc/strcspn.o
 .pdr           0x00000000000016a0       0x20 libc/sprintf.o
 .pdr           0x00000000000016c0       0x20 libc/strstr.o
 .pdr           0x00000000000016e0       0x20 libc/strlen.o
 .pdr           0x0000000000001700       0x20 libc/strcmp.o
 .pdr           0x0000000000001720       0x40 libc/strcpy.o
 .pdr           0x0000000000001760       0x20 libc/modf.o
 .pdr           0x0000000000001780       0x40 libc/memcpy.o
 .pdr           0x00000000000017c0       0x20 libc/strichr.o
 .pdr           0x00000000000017e0       0x20 libc/strcat.o
 .pdr           0x0000000000001800       0x20 libc/strtoupp.o
 .pdr           0x0000000000001820       0x20 libc/fls.o
 .pdr           0x0000000000001840       0x40 libc/scanf.o
 .pdr           0x0000000000001880       0x20 libc/toupper.o
 .pdr           0x00000000000018a0       0x20 libc/strncpy.o
 .pdr           0x00000000000018c0       0x80 libc/atob.o
 .pdr           0x0000000000001940       0x80 libc/vsprintf.o
 .pdr           0x00000000000019c0       0x20 libc/ffs.o
 .pdr           0x00000000000019e0       0x20 libc/str_fmt.o
 .pdr           0x0000000000001a00       0x20 libc/strchr.o
 .pdr           0x0000000000001a20       0x20 libm/s_fabs.o
 .pdr           0x0000000000001a40       0x20 libm/s_scalbn.o
 .pdr           0x0000000000001a60       0x40 libm/e_pow.o
 .pdr           0x0000000000001aa0       0x40 libm/e_sqrt.o
 .pdr           0x0000000000001ae0       0x20 libm/s_copysign.o
 .pdr           0x0000000000001b00       0xa0 os/getchar.o
 .pdr           0x0000000000001ba0      0x1a0 os/mem.o
 .pdr           0x0000000000001d40        0x0 os/testFun.o
 .pdr           0x0000000000001d40       0x20 os/stdlib.o
 .pdr           0x0000000000001d60      0x220 os/env.o
 .pdr           0x0000000000001f80      0x100 os/common_fun.o
 .pdr           0x0000000000002080      0x1a0 os/os.o
 .pdr           0x0000000000002220      0x100 os/shell.o
 .pdr           0x0000000000002320       0x60 os/rand.o
 .pdr           0x0000000000002380      0x5e0 os/thread.o
 .pdr           0x0000000000002960      0x1a0 os/net/synMain.o
 .pdr           0x0000000000002b00       0x60 os/net/mii.o
 .pdr           0x0000000000002b60      0x100 os/net/synopGMAC_plat.o
 .pdr           0x0000000000002c60     0x18a0 os/net/synopGMAC_Dev.o
 .pdr           0x0000000000004500        0x0 os/net/lwip-1.4.1/src/core/dhcp.o
 .pdr           0x0000000000004500        0x0 os/net/lwip-1.4.1/src/core/mem.o
 .pdr           0x0000000000004500       0x20 os/net/lwip-1.4.1/src/core/init.o
 .pdr           0x0000000000004520       0x60 os/net/lwip-1.4.1/src/core/memp.o
 .pdr           0x0000000000004580       0x20 os/net/lwip-1.4.1/src/core/sys.o
 .pdr           0x00000000000045a0       0x80 os/net/lwip-1.4.1/src/core/tcp_in.o
 .pdr           0x0000000000004620      0x100 os/net/lwip-1.4.1/src/core/dns.o
 .pdr           0x0000000000004720        0x0 os/net/lwip-1.4.1/src/core/raw.o
 .pdr           0x0000000000004720      0x440 os/net/lwip-1.4.1/src/core/tcp.o
 .pdr           0x0000000000004b60       0x80 os/net/lwip-1.4.1/src/core/def.o
 .pdr           0x0000000000004be0      0x1a0 os/net/lwip-1.4.1/src/core/netif.o
 .pdr           0x0000000000004d80        0x0 os/net/lwip-1.4.1/src/core/stats.o
 .pdr           0x0000000000004d80      0x120 os/net/lwip-1.4.1/src/core/timers.o
 .pdr           0x0000000000004ea0      0x260 os/net/lwip-1.4.1/src/core/pbuf.o
 .pdr           0x0000000000005100      0x160 os/net/lwip-1.4.1/src/core/udp.o
 .pdr           0x0000000000005260      0x1a0 os/net/lwip-1.4.1/src/core/tcp_out.o
 .pdr           0x0000000000005400        0x0 os/net/lwip-1.4.1/src/core/ipv4/ip_frag.o
 .pdr           0x0000000000005400        0x0 os/net/lwip-1.4.1/src/core/ipv4/inet.o
 .pdr           0x0000000000005400       0xc0 os/net/lwip-1.4.1/src/core/ipv4/ip_addr.o
 .pdr           0x00000000000054c0      0x180 os/net/lwip-1.4.1/src/core/ipv4/igmp.o
 .pdr           0x0000000000005640       0xa0 os/net/lwip-1.4.1/src/core/ipv4/ip.o
 .pdr           0x00000000000056e0        0x0 os/net/lwip-1.4.1/src/core/ipv4/autoip.o
 .pdr           0x00000000000056e0       0xa0 os/net/lwip-1.4.1/src/core/ipv4/inet_chksum.o
 .pdr           0x0000000000005780       0x40 os/net/lwip-1.4.1/src/core/ipv4/icmp.o
 .pdr           0x00000000000057c0       0x80 os/net/lwip-1.4.1/src/api/netdb.o
 .pdr           0x0000000000005840      0x280 os/net/lwip-1.4.1/src/api/api_lib.o
 .pdr           0x0000000000005ac0       0xc0 os/net/lwip-1.4.1/src/api/netifapi.o
 .pdr           0x0000000000005b80      0x1c0 os/net/lwip-1.4.1/src/api/tcpip.o
 .pdr           0x0000000000005d40      0x120 os/net/lwip-1.4.1/src/api/netbuf.o
 .pdr           0x0000000000005e60        0x0 os/net/lwip-1.4.1/src/api/err.o
 .pdr           0x0000000000005e60      0x360 os/net/lwip-1.4.1/src/api/api_msg.o
 .pdr           0x00000000000061c0      0x360 os/net/lwip-1.4.1/src/api/sockets.o
 .pdr           0x0000000000006520        0x0 os/net/lwip-1.4.1/src/netif/slipif.o
 .pdr           0x0000000000006520      0x160 os/net/lwip-1.4.1/src/netif/etharp.o
 .pdr           0x0000000000006680      0x100 os/net/lwip-1.4.1/src/netif/ethernetif.o
 .pdr           0x0000000000006780      0x300 os/net/lwip-1.4.1/src/arch/sys_arch.o
 .pdr           0x0000000000006a80      0x380 os/hardware/spi_flash.o
 .pdr           0x0000000000006e00       0x20 os/hardware/reboot.o
 .pdr           0x0000000000006e20      0x120 os/filesys/netio.o
 .pdr           0x0000000000006f40      0x1e0 os/filesys/tftplib.o
 .pdr           0x0000000000007120      0x1a0 os/filesys/filesys.o
 .pdr           0x00000000000072c0      0x140 os/filesys/loadelf.o
 .pdr           0x0000000000007400       0x60 os/filesys/load.o

.mdebug.abi32   0x0000000000000000        0x0
 .mdebug.abi32  0x0000000000000000        0x0 lib/ls1c_delay.o
 .mdebug.abi32  0x0000000000000000        0x0 lib/ls1c_cache.o
 .mdebug.abi32  0x0000000000000000        0x0 lib/ls1c_can.o
 .mdebug.abi32  0x0000000000000000        0x0 lib/ls1c_simulate_i2c.o
 .mdebug.abi32  0x0000000000000000        0x0 lib/ls1c_timer.o
 .mdebug.abi32  0x0000000000000000        0x0 lib/ls1c_pin.o
 .mdebug.abi32  0x0000000000000000        0x0 lib/ls1c_irq.o
 .mdebug.abi32  0x0000000000000000        0x0 lib/ls1c_i2c.o
 .mdebug.abi32  0x0000000000000000        0x0 lib/ls1c_public.o
 .mdebug.abi32  0x0000000000000000        0x0 lib/ls1c_sys_tick.o
 .mdebug.abi32  0x0000000000000000        0x0 lib/ls1c_clock.o
 .mdebug.abi32  0x0000000000000000        0x0 lib/ls1c_uart.o
 .mdebug.abi32  0x0000000000000000        0x0 lib/ls1c_spi.o
 .mdebug.abi32  0x0000000000000000        0x0 lib/ls1c_gpio.o
 .mdebug.abi32  0x0000000000000000        0x0 lib/ls1c_pwm.o
 .mdebug.abi32  0x0000000000000000        0x0 example/test_delay.o
 .mdebug.abi32  0x0000000000000000        0x0 example/test_can.o
 .mdebug.abi32  0x0000000000000000        0x0 example/test_i2c.o
 .mdebug.abi32  0x0000000000000000        0x0 example/test_fpu.o
 .mdebug.abi32  0x0000000000000000        0x0 example/test_timer.o
 .mdebug.abi32  0x0000000000000000        0x0 example/led.o
 .mdebug.abi32  0x0000000000000000        0x0 example/test_gpio.o
 .mdebug.abi32  0x0000000000000000        0x0 example/test_sys_tick.o
 .mdebug.abi32  0x0000000000000000        0x0 example/test_uart.o
 .mdebug.abi32  0x0000000000000000        0x0 example/test_spi.o
 .mdebug.abi32  0x0000000000000000        0x0 example/test_simulate_i2c.o
 .mdebug.abi32  0x0000000000000000        0x0 example/test_pwm.o
 .mdebug.abi32  0x0000000000000000        0x0 app/main.o
 .mdebug.abi32  0x0000000000000000        0x0 libc/ctype.o
 .mdebug.abi32  0x0000000000000000        0x0 libc/printf.o
 .mdebug.abi32  0x0000000000000000        0x0 libc/strcspn.o
 .mdebug.abi32  0x0000000000000000        0x0 libc/sprintf.o
 .mdebug.abi32  0x0000000000000000        0x0 libc/strstr.o
 .mdebug.abi32  0x0000000000000000        0x0 libc/strlen.o
 .mdebug.abi32  0x0000000000000000        0x0 libc/strcmp.o
 .mdebug.abi32  0x0000000000000000        0x0 libc/strcpy.o
 .mdebug.abi32  0x0000000000000000        0x0 libc/modf.o
 .mdebug.abi32  0x0000000000000000        0x0 libc/memcpy.o
 .mdebug.abi32  0x0000000000000000        0x0 libc/strichr.o
 .mdebug.abi32  0x0000000000000000        0x0 libc/strcat.o
 .mdebug.abi32  0x0000000000000000        0x0 libc/strtoupp.o
 .mdebug.abi32  0x0000000000000000        0x0 libc/fls.o
 .mdebug.abi32  0x0000000000000000        0x0 libc/scanf.o
 .mdebug.abi32  0x0000000000000000        0x0 libc/toupper.o
 .mdebug.abi32  0x0000000000000000        0x0 libc/strncpy.o
 .mdebug.abi32  0x0000000000000000        0x0 libc/atob.o
 .mdebug.abi32  0x0000000000000000        0x0 libc/vsprintf.o
 .mdebug.abi32  0x0000000000000000        0x0 libc/ffs.o
 .mdebug.abi32  0x0000000000000000        0x0 libc/str_fmt.o
 .mdebug.abi32  0x0000000000000000        0x0 libc/strchr.o
 .mdebug.abi32  0x0000000000000000        0x0 libm/s_fabs.o
 .mdebug.abi32  0x0000000000000000        0x0 libm/s_scalbn.o
 .mdebug.abi32  0x0000000000000000        0x0 libm/e_pow.o
 .mdebug.abi32  0x0000000000000000        0x0 libm/e_sqrt.o
 .mdebug.abi32  0x0000000000000000        0x0 libm/s_copysign.o
 .mdebug.abi32  0x0000000000000000        0x0 os/getchar.o
 .mdebug.abi32  0x0000000000000000        0x0 os/mem.o
 .mdebug.abi32  0x0000000000000000        0x0 os/testFun.o
 .mdebug.abi32  0x0000000000000000        0x0 os/stdlib.o
 .mdebug.abi32  0x0000000000000000        0x0 os/env.o
 .mdebug.abi32  0x0000000000000000        0x0 os/common_fun.o
 .mdebug.abi32  0x0000000000000000        0x0 os/os.o
 .mdebug.abi32  0x0000000000000000        0x0 os/shell.o
 .mdebug.abi32  0x0000000000000000        0x0 os/rand.o
 .mdebug.abi32  0x0000000000000000        0x0 os/thread.o
 .mdebug.abi32  0x0000000000000000        0x0 os/net/synMain.o
 .mdebug.abi32  0x0000000000000000        0x0 os/net/mii.o
 .mdebug.abi32  0x0000000000000000        0x0 os/net/synopGMAC_plat.o
 .mdebug.abi32  0x0000000000000000        0x0 os/net/synopGMAC_Dev.o
 .mdebug.abi32  0x0000000000000000        0x0 os/net/lwip-1.4.1/src/core/dhcp.o
 .mdebug.abi32  0x0000000000000000        0x0 os/net/lwip-1.4.1/src/core/mem.o
 .mdebug.abi32  0x0000000000000000        0x0 os/net/lwip-1.4.1/src/core/init.o
 .mdebug.abi32  0x0000000000000000        0x0 os/net/lwip-1.4.1/src/core/memp.o
 .mdebug.abi32  0x0000000000000000        0x0 os/net/lwip-1.4.1/src/core/sys.o
 .mdebug.abi32  0x0000000000000000        0x0 os/net/lwip-1.4.1/src/core/tcp_in.o
 .mdebug.abi32  0x0000000000000000        0x0 os/net/lwip-1.4.1/src/core/dns.o
 .mdebug.abi32  0x0000000000000000        0x0 os/net/lwip-1.4.1/src/core/raw.o
 .mdebug.abi32  0x0000000000000000        0x0 os/net/lwip-1.4.1/src/core/tcp.o
 .mdebug.abi32  0x0000000000000000        0x0 os/net/lwip-1.4.1/src/core/def.o
 .mdebug.abi32  0x0000000000000000        0x0 os/net/lwip-1.4.1/src/core/netif.o
 .mdebug.abi32  0x0000000000000000        0x0 os/net/lwip-1.4.1/src/core/stats.o
 .mdebug.abi32  0x0000000000000000        0x0 os/net/lwip-1.4.1/src/core/timers.o
 .mdebug.abi32  0x0000000000000000        0x0 os/net/lwip-1.4.1/src/core/pbuf.o
 .mdebug.abi32  0x0000000000000000        0x0 os/net/lwip-1.4.1/src/core/udp.o
 .mdebug.abi32  0x0000000000000000        0x0 os/net/lwip-1.4.1/src/core/tcp_out.o
 .mdebug.abi32  0x0000000000000000        0x0 os/net/lwip-1.4.1/src/core/ipv4/ip_frag.o
 .mdebug.abi32  0x0000000000000000        0x0 os/net/lwip-1.4.1/src/core/ipv4/inet.o
 .mdebug.abi32  0x0000000000000000        0x0 os/net/lwip-1.4.1/src/core/ipv4/ip_addr.o
 .mdebug.abi32  0x0000000000000000        0x0 os/net/lwip-1.4.1/src/core/ipv4/igmp.o
 .mdebug.abi32  0x0000000000000000        0x0 os/net/lwip-1.4.1/src/core/ipv4/ip.o
 .mdebug.abi32  0x0000000000000000        0x0 os/net/lwip-1.4.1/src/core/ipv4/autoip.o
 .mdebug.abi32  0x0000000000000000        0x0 os/net/lwip-1.4.1/src/core/ipv4/inet_chksum.o
 .mdebug.abi32  0x0000000000000000        0x0 os/net/lwip-1.4.1/src/core/ipv4/icmp.o
 .mdebug.abi32  0x0000000000000000        0x0 os/net/lwip-1.4.1/src/api/netdb.o
 .mdebug.abi32  0x0000000000000000        0x0 os/net/lwip-1.4.1/src/api/api_lib.o
 .mdebug.abi32  0x0000000000000000        0x0 os/net/lwip-1.4.1/src/api/netifapi.o
 .mdebug.abi32  0x0000000000000000        0x0 os/net/lwip-1.4.1/src/api/tcpip.o
 .mdebug.abi32  0x0000000000000000        0x0 os/net/lwip-1.4.1/src/api/netbuf.o
 .mdebug.abi32  0x0000000000000000        0x0 os/net/lwip-1.4.1/src/api/err.o
 .mdebug.abi32  0x0000000000000000        0x0 os/net/lwip-1.4.1/src/api/api_msg.o
 .mdebug.abi32  0x0000000000000000        0x0 os/net/lwip-1.4.1/src/api/sockets.o
 .mdebug.abi32  0x0000000000000000        0x0 os/net/lwip-1.4.1/src/netif/slipif.o
 .mdebug.abi32  0x0000000000000000        0x0 os/net/lwip-1.4.1/src/netif/etharp.o
 .mdebug.abi32  0x0000000000000000        0x0 os/net/lwip-1.4.1/src/netif/ethernetif.o
 .mdebug.abi32  0x0000000000000000        0x0 os/net/lwip-1.4.1/src/arch/sys_arch.o
 .mdebug.abi32  0x0000000000000000        0x0 os/hardware/spi_flash.o
 .mdebug.abi32  0x0000000000000000        0x0 os/hardware/reboot.o
 .mdebug.abi32  0x0000000000000000        0x0 os/filesys/netio.o
 .mdebug.abi32  0x0000000000000000        0x0 os/filesys/tftplib.o
 .mdebug.abi32  0x0000000000000000        0x0 os/filesys/filesys.o
 .mdebug.abi32  0x0000000000000000        0x0 os/filesys/loadelf.o
 .mdebug.abi32  0x0000000000000000        0x0 os/filesys/load.o

.debug_abbrev   0x0000000000000000     0xa2cb
 .debug_abbrev  0x0000000000000000       0xa5 lib/ls1c_delay.o
 .debug_abbrev  0x00000000000000a5      0x12a lib/ls1c_cache.o
 .debug_abbrev  0x00000000000001cf      0x1a6 lib/ls1c_can.o
 .debug_abbrev  0x0000000000000375      0x1e7 lib/ls1c_simulate_i2c.o
 .debug_abbrev  0x000000000000055c      0x155 lib/ls1c_timer.o
 .debug_abbrev  0x00000000000006b1       0xc9 lib/ls1c_pin.o
 .debug_abbrev  0x000000000000077a      0x273 lib/ls1c_irq.o
 .debug_abbrev  0x00000000000009ed      0x249 lib/ls1c_i2c.o
 .debug_abbrev  0x0000000000000c36       0xb9 lib/ls1c_public.o
 .debug_abbrev  0x0000000000000cef      0x1ca lib/ls1c_sys_tick.o
 .debug_abbrev  0x0000000000000eb9       0xe1 lib/ls1c_clock.o
 .debug_abbrev  0x0000000000000f9a      0x19f lib/ls1c_uart.o
 .debug_abbrev  0x0000000000001139      0x26f lib/ls1c_spi.o
 .debug_abbrev  0x00000000000013a8      0x105 lib/ls1c_gpio.o
 .debug_abbrev  0x00000000000014ad       0xfe lib/ls1c_pwm.o
 .debug_abbrev  0x00000000000015ab       0x7f example/test_delay.o
 .debug_abbrev  0x000000000000162a      0x15a example/test_can.o
 .debug_abbrev  0x0000000000001784       0xdd example/test_i2c.o
 .debug_abbrev  0x0000000000001861       0xb6 example/test_fpu.o
 .debug_abbrev  0x0000000000001917       0xe0 example/test_timer.o
 .debug_abbrev  0x00000000000019f7       0x76 example/led.o
 .debug_abbrev  0x0000000000001a6d       0xfc example/test_gpio.o
 .debug_abbrev  0x0000000000001b69       0x8f example/test_sys_tick.o
 .debug_abbrev  0x0000000000001bf8      0x127 example/test_uart.o
 .debug_abbrev  0x0000000000001d1f      0x216 example/test_spi.o
 .debug_abbrev  0x0000000000001f35      0x1a9 example/test_simulate_i2c.o
 .debug_abbrev  0x00000000000020de       0xc6 example/test_pwm.o
 .debug_abbrev  0x00000000000021a4       0xcf app/main.o
 .debug_abbrev  0x0000000000002273       0x5b libc/ctype.o
 .debug_abbrev  0x00000000000022ce       0xe2 libc/printf.o
 .debug_abbrev  0x00000000000023b0       0x81 libc/strcspn.o
 .debug_abbrev  0x0000000000002431       0x9c libc/sprintf.o
 .debug_abbrev  0x00000000000024cd       0x74 libc/strstr.o
 .debug_abbrev  0x0000000000002541       0x74 libc/strlen.o
 .debug_abbrev  0x00000000000025b5       0x74 libc/strcmp.o
 .debug_abbrev  0x0000000000002629       0xc8 libc/strcpy.o
 .debug_abbrev  0x00000000000026f1       0x78 libc/modf.o
 .debug_abbrev  0x0000000000002769       0xc5 libc/memcpy.o
 .debug_abbrev  0x000000000000282e       0x6d libc/strichr.o
 .debug_abbrev  0x000000000000289b       0x74 libc/strcat.o
 .debug_abbrev  0x000000000000290f       0x5c libc/strtoupp.o
 .debug_abbrev  0x000000000000296b       0x59 libc/fls.o
 .debug_abbrev  0x00000000000029c4      0x11c libc/scanf.o
 .debug_abbrev  0x0000000000002ae0       0x91 libc/toupper.o
 .debug_abbrev  0x0000000000002b71       0x81 libc/strncpy.o
 .debug_abbrev  0x0000000000002bf2      0x173 libc/atob.o
 .debug_abbrev  0x0000000000002d65      0x27d libc/vsprintf.o
 .debug_abbrev  0x0000000000002fe2       0x62 libc/ffs.o
 .debug_abbrev  0x0000000000003044       0x87 libc/str_fmt.o
 .debug_abbrev  0x00000000000030cb       0x74 libc/strchr.o
 .debug_abbrev  0x000000000000313f       0xc4 libm/s_fabs.o
 .debug_abbrev  0x0000000000003203      0x103 libm/s_scalbn.o
 .debug_abbrev  0x0000000000003306      0x185 libm/e_pow.o
 .debug_abbrev  0x000000000000348b      0x116 libm/e_sqrt.o
 .debug_abbrev  0x00000000000035a1       0xc6 libm/s_copysign.o
 .debug_abbrev  0x0000000000003667      0x250 os/getchar.o
 .debug_abbrev  0x00000000000038b7      0x247 os/mem.o
 .debug_abbrev  0x0000000000003afe        0x1 os/testFun.o
 .debug_abbrev  0x0000000000003aff       0x83 os/stdlib.o
 .debug_abbrev  0x0000000000003b82      0x2fb os/env.o
 .debug_abbrev  0x0000000000003e7d      0x12d os/common_fun.o
 .debug_abbrev  0x0000000000003faa      0x19c os/os.o
 .debug_abbrev  0x0000000000004146      0x350 os/shell.o
 .debug_abbrev  0x0000000000004496       0xcc os/rand.o
 .debug_abbrev  0x0000000000004562      0x420 os/thread.o
 .debug_abbrev  0x0000000000004982      0x371 os/net/synMain.o
 .debug_abbrev  0x0000000000004cf3      0x18f os/net/mii.o
 .debug_abbrev  0x0000000000004e82      0x1ce os/net/synopGMAC_plat.o
 .debug_abbrev  0x0000000000005050      0x37e os/net/synopGMAC_Dev.o
 .debug_abbrev  0x00000000000053ce       0x2a os/net/lwip-1.4.1/src/core/dhcp.o
 .debug_abbrev  0x00000000000053f8       0x2a os/net/lwip-1.4.1/src/core/mem.o
 .debug_abbrev  0x0000000000005422       0x4b os/net/lwip-1.4.1/src/core/init.o
 .debug_abbrev  0x000000000000546d      0x16c os/net/lwip-1.4.1/src/core/memp.o
 .debug_abbrev  0x00000000000055d9       0xb3 os/net/lwip-1.4.1/src/core/sys.o
 .debug_abbrev  0x000000000000568c      0x2ab os/net/lwip-1.4.1/src/core/tcp_in.o
 .debug_abbrev  0x0000000000005937      0x2eb os/net/lwip-1.4.1/src/core/dns.o
 .debug_abbrev  0x0000000000005c22       0x2a os/net/lwip-1.4.1/src/core/raw.o
 .debug_abbrev  0x0000000000005c4c      0x3bb os/net/lwip-1.4.1/src/core/tcp.o
 .debug_abbrev  0x0000000000006007       0xb9 os/net/lwip-1.4.1/src/core/def.o
 .debug_abbrev  0x00000000000060c0      0x2e2 os/net/lwip-1.4.1/src/core/netif.o
 .debug_abbrev  0x00000000000063a2       0x2a os/net/lwip-1.4.1/src/core/stats.o
 .debug_abbrev  0x00000000000063cc      0x1e9 os/net/lwip-1.4.1/src/core/timers.o
 .debug_abbrev  0x00000000000065b5      0x36a os/net/lwip-1.4.1/src/core/pbuf.o
 .debug_abbrev  0x000000000000691f      0x293 os/net/lwip-1.4.1/src/core/udp.o
 .debug_abbrev  0x0000000000006bb2      0x2fc os/net/lwip-1.4.1/src/core/tcp_out.o
 .debug_abbrev  0x0000000000006eae       0x33 os/net/lwip-1.4.1/src/core/ipv4/ip_frag.o
 .debug_abbrev  0x0000000000006ee1       0x33 os/net/lwip-1.4.1/src/core/ipv4/inet.o
 .debug_abbrev  0x0000000000006f14      0x20f os/net/lwip-1.4.1/src/core/ipv4/ip_addr.o
 .debug_abbrev  0x0000000000007123      0x2cd os/net/lwip-1.4.1/src/core/ipv4/igmp.o
 .debug_abbrev  0x00000000000073f0      0x1a4 os/net/lwip-1.4.1/src/core/ipv4/ip.o
 .debug_abbrev  0x0000000000007594       0x2a os/net/lwip-1.4.1/src/core/ipv4/autoip.o
 .debug_abbrev  0x00000000000075be      0x145 os/net/lwip-1.4.1/src/core/ipv4/inet_chksum.o
 .debug_abbrev  0x0000000000007703      0x1fd os/net/lwip-1.4.1/src/core/ipv4/icmp.o
 .debug_abbrev  0x0000000000007900      0x1bd os/net/lwip-1.4.1/src/api/netdb.o
 .debug_abbrev  0x0000000000007abd      0x25f os/net/lwip-1.4.1/src/api/api_lib.o
 .debug_abbrev  0x0000000000007d1c      0x168 os/net/lwip-1.4.1/src/api/netifapi.o
 .debug_abbrev  0x0000000000007e84      0x289 os/net/lwip-1.4.1/src/api/tcpip.o
 .debug_abbrev  0x000000000000810d      0x169 os/net/lwip-1.4.1/src/api/netbuf.o
 .debug_abbrev  0x0000000000008276       0x2a os/net/lwip-1.4.1/src/api/err.o
 .debug_abbrev  0x00000000000082a0      0x2b9 os/net/lwip-1.4.1/src/api/api_msg.o
 .debug_abbrev  0x0000000000008559      0x37b os/net/lwip-1.4.1/src/api/sockets.o
 .debug_abbrev  0x00000000000088d4       0x33 os/net/lwip-1.4.1/src/netif/slipif.o
 .debug_abbrev  0x0000000000008907      0x2c9 os/net/lwip-1.4.1/src/netif/etharp.o
 .debug_abbrev  0x0000000000008bd0      0x273 os/net/lwip-1.4.1/src/netif/ethernetif.o
 .debug_abbrev  0x0000000000008e43      0x2c4 os/net/lwip-1.4.1/src/arch/sys_arch.o
 .debug_abbrev  0x0000000000009107      0x475 os/hardware/spi_flash.o
 .debug_abbrev  0x000000000000957c       0xb0 os/hardware/reboot.o
 .debug_abbrev  0x000000000000962c      0x1ff os/filesys/netio.o
 .debug_abbrev  0x000000000000982b      0x3dc os/filesys/tftplib.o
 .debug_abbrev  0x0000000000009c07      0x2e8 os/filesys/filesys.o
 .debug_abbrev  0x0000000000009eef      0x275 os/filesys/loadelf.o
 .debug_abbrev  0x000000000000a164      0x167 os/filesys/load.o

.debug_info     0x0000000000000000    0x30d3f
 .debug_info    0x0000000000000000       0xe3 lib/ls1c_delay.o
 .debug_info    0x00000000000000e3      0x411 lib/ls1c_cache.o
 .debug_info    0x00000000000004f4      0x55d lib/ls1c_can.o
 .debug_info    0x0000000000000a51      0x72f lib/ls1c_simulate_i2c.o
 .debug_info    0x0000000000001180      0x26a lib/ls1c_timer.o
 .debug_info    0x00000000000013ea      0x15f lib/ls1c_pin.o
 .debug_info    0x0000000000001549      0x5ed lib/ls1c_irq.o
 .debug_info    0x0000000000001b36      0x5df lib/ls1c_i2c.o
 .debug_info    0x0000000000002115      0x1f5 lib/ls1c_public.o
 .debug_info    0x000000000000230a      0x3e0 lib/ls1c_sys_tick.o
 .debug_info    0x00000000000026ea      0x211 lib/ls1c_clock.o
 .debug_info    0x00000000000028fb      0x428 lib/ls1c_uart.o
 .debug_info    0x0000000000002d23      0x5fb lib/ls1c_spi.o
 .debug_info    0x000000000000331e      0x2d2 lib/ls1c_gpio.o
 .debug_info    0x00000000000035f0      0x217 lib/ls1c_pwm.o
 .debug_info    0x0000000000003807       0xf6 example/test_delay.o
 .debug_info    0x00000000000038fd      0x594 example/test_can.o
 .debug_info    0x0000000000003e91      0x1e9 example/test_i2c.o
 .debug_info    0x000000000000407a      0x212 example/test_fpu.o
 .debug_info    0x000000000000428c      0x14b example/test_timer.o
 .debug_info    0x00000000000043d7       0xd6 example/led.o
 .debug_info    0x00000000000044ad      0x1b8 example/test_gpio.o
 .debug_info    0x0000000000004665       0x97 example/test_sys_tick.o
 .debug_info    0x00000000000046fc      0x3a7 example/test_uart.o
 .debug_info    0x0000000000004aa3      0x5f4 example/test_spi.o
 .debug_info    0x0000000000005097      0x27c example/test_simulate_i2c.o
 .debug_info    0x0000000000005313      0x163 example/test_pwm.o
 .debug_info    0x0000000000005476      0x185 app/main.o
 .debug_info    0x00000000000055fb       0x75 libc/ctype.o
 .debug_info    0x0000000000005670      0x105 libc/printf.o
 .debug_info    0x0000000000005775       0xc1 libc/strcspn.o
 .debug_info    0x0000000000005836       0xb9 libc/sprintf.o
 .debug_info    0x00000000000058ef       0xcd libc/strstr.o
 .debug_info    0x00000000000059bc       0xad libc/strlen.o
 .debug_info    0x0000000000005a69       0xb1 libc/strcmp.o
 .debug_info    0x0000000000005b1a      0x11c libc/strcpy.o
 .debug_info    0x0000000000005c36       0x95 libc/modf.o
 .debug_info    0x0000000000005ccb      0x13d libc/memcpy.o
 .debug_info    0x0000000000005e08       0xb3 libc/strichr.o
 .debug_info    0x0000000000005ebb       0xc2 libc/strcat.o
 .debug_info    0x0000000000005f7d       0x9d libc/strtoupp.o
 .debug_info    0x000000000000601a       0x63 libc/fls.o
 .debug_info    0x000000000000607d      0x1cb libc/scanf.o
 .debug_info    0x0000000000006248       0xa9 libc/toupper.o
 .debug_info    0x00000000000062f1       0xda libc/strncpy.o
 .debug_info    0x00000000000063cb      0x312 libc/atob.o
 .debug_info    0x00000000000066dd      0x562 libc/vsprintf.o
 .debug_info    0x0000000000006c3f       0x9b libc/ffs.o
 .debug_info    0x0000000000006cda       0xe0 libc/str_fmt.o
 .debug_info    0x0000000000006dba       0xb5 libc/strchr.o
 .debug_info    0x0000000000006e6f      0x13e libm/s_fabs.o
 .debug_info    0x0000000000006fad      0x1f5 libm/s_scalbn.o
 .debug_info    0x00000000000071a2      0x715 libm/e_pow.o
 .debug_info    0x00000000000078b7      0x23d libm/e_sqrt.o
 .debug_info    0x0000000000007af4      0x17d libm/s_copysign.o
 .debug_info    0x0000000000007c71      0x500 os/getchar.o
 .debug_info    0x0000000000008171      0x864 os/mem.o
 .debug_info    0x00000000000089d5        0x0 os/testFun.o
 .debug_info    0x00000000000089d5       0x8d os/stdlib.o
 .debug_info    0x0000000000008a62      0x8e7 os/env.o
 .debug_info    0x0000000000009349      0x386 os/common_fun.o
 .debug_info    0x00000000000096cf      0x40c os/os.o
 .debug_info    0x0000000000009adb      0x813 os/shell.o
 .debug_info    0x000000000000a2ee      0x105 os/rand.o
 .debug_info    0x000000000000a3f3     0x1d1c os/thread.o
 .debug_info    0x000000000000c10f     0x1a58 os/net/synMain.o
 .debug_info    0x000000000000db67      0x389 os/net/mii.o
 .debug_info    0x000000000000def0      0x59c os/net/synopGMAC_plat.o
 .debug_info    0x000000000000e48c     0xa7a7 os/net/synopGMAC_Dev.o
 .debug_info    0x0000000000018c33       0x65 os/net/lwip-1.4.1/src/core/dhcp.o
 .debug_info    0x0000000000018c98       0x65 os/net/lwip-1.4.1/src/core/mem.o
 .debug_info    0x0000000000018cfd       0x90 os/net/lwip-1.4.1/src/core/init.o
 .debug_info    0x0000000000018d8d      0x2b7 os/net/lwip-1.4.1/src/core/memp.o
 .debug_info    0x0000000000019044      0x193 os/net/lwip-1.4.1/src/core/sys.o
 .debug_info    0x00000000000191d7      0xf0e os/net/lwip-1.4.1/src/core/tcp_in.o
 .debug_info    0x000000000001a0e5      0xaa1 os/net/lwip-1.4.1/src/core/dns.o
 .debug_info    0x000000000001ab86       0x65 os/net/lwip-1.4.1/src/core/raw.o
 .debug_info    0x000000000001abeb     0x1691 os/net/lwip-1.4.1/src/core/tcp.o
 .debug_info    0x000000000001c27c      0x161 os/net/lwip-1.4.1/src/core/def.o
 .debug_info    0x000000000001c3dd      0xd99 os/net/lwip-1.4.1/src/core/netif.o
 .debug_info    0x000000000001d176       0x65 os/net/lwip-1.4.1/src/core/stats.o
 .debug_info    0x000000000001d1db      0xace os/net/lwip-1.4.1/src/core/timers.o
 .debug_info    0x000000000001dca9     0x1025 os/net/lwip-1.4.1/src/core/pbuf.o
 .debug_info    0x000000000001ecce      0xaab os/net/lwip-1.4.1/src/core/udp.o
 .debug_info    0x000000000001f779     0x11f6 os/net/lwip-1.4.1/src/core/tcp_out.o
 .debug_info    0x000000000002096f       0x6f os/net/lwip-1.4.1/src/core/ipv4/ip_frag.o
 .debug_info    0x00000000000209de       0x68 os/net/lwip-1.4.1/src/core/ipv4/inet.o
 .debug_info    0x0000000000020a46      0x5ff os/net/lwip-1.4.1/src/core/ipv4/ip_addr.o
 .debug_info    0x0000000000021045      0xbd2 os/net/lwip-1.4.1/src/core/ipv4/igmp.o
 .debug_info    0x0000000000021c17      0x7ad os/net/lwip-1.4.1/src/core/ipv4/ip.o
 .debug_info    0x00000000000223c4       0x65 os/net/lwip-1.4.1/src/core/ipv4/autoip.o
 .debug_info    0x0000000000022429      0x3ce os/net/lwip-1.4.1/src/core/ipv4/inet_chksum.o
 .debug_info    0x00000000000227f7      0x690 os/net/lwip-1.4.1/src/core/ipv4/icmp.o
 .debug_info    0x0000000000022e87      0x614 os/net/lwip-1.4.1/src/api/netdb.o
 .debug_info    0x000000000002349b     0x1648 os/net/lwip-1.4.1/src/api/api_lib.o
 .debug_info    0x0000000000024ae3      0x715 os/net/lwip-1.4.1/src/api/netifapi.o
 .debug_info    0x00000000000251f8     0x1027 os/net/lwip-1.4.1/src/api/tcpip.o
 .debug_info    0x000000000002621f      0x44f os/net/lwip-1.4.1/src/api/netbuf.o
 .debug_info    0x000000000002666e       0x65 os/net/lwip-1.4.1/src/api/err.o
 .debug_info    0x00000000000266d3     0x1626 os/net/lwip-1.4.1/src/api/api_msg.o
 .debug_info    0x0000000000027cf9     0x21b5 os/net/lwip-1.4.1/src/api/sockets.o
 .debug_info    0x0000000000029eae       0x6f os/net/lwip-1.4.1/src/netif/slipif.o
 .debug_info    0x0000000000029f1d      0xd9d os/net/lwip-1.4.1/src/netif/etharp.o
 .debug_info    0x000000000002acba      0xb8e os/net/lwip-1.4.1/src/netif/ethernetif.o
 .debug_info    0x000000000002b848      0xdff os/net/lwip-1.4.1/src/arch/sys_arch.o
 .debug_info    0x000000000002c647     0x12af os/hardware/spi_flash.o
 .debug_info    0x000000000002d8f6      0x110 os/hardware/reboot.o
 .debug_info    0x000000000002da06      0x827 os/filesys/netio.o
 .debug_info    0x000000000002e22d     0x10c3 os/filesys/tftplib.o
 .debug_info    0x000000000002f2f0      0x975 os/filesys/filesys.o
 .debug_info    0x000000000002fc65      0xc03 os/filesys/loadelf.o
 .debug_info    0x0000000000030868      0x4d7 os/filesys/load.o

.debug_line     0x0000000000000000     0xb7c5
 .debug_line    0x0000000000000000       0x60 lib/ls1c_delay.o
 .debug_line    0x0000000000000060      0x109 lib/ls1c_cache.o
 .debug_line    0x0000000000000169      0x133 lib/ls1c_can.o
 .debug_line    0x000000000000029c      0x201 lib/ls1c_simulate_i2c.o
 .debug_line    0x000000000000049d      0x117 lib/ls1c_timer.o
 .debug_line    0x00000000000005b4       0xb6 lib/ls1c_pin.o
 .debug_line    0x000000000000066a       0xe7 lib/ls1c_irq.o
 .debug_line    0x0000000000000751      0x1c2 lib/ls1c_i2c.o
 .debug_line    0x0000000000000913       0x65 lib/ls1c_public.o
 .debug_line    0x0000000000000978       0x90 lib/ls1c_sys_tick.o
 .debug_line    0x0000000000000a08       0x96 lib/ls1c_clock.o
 .debug_line    0x0000000000000a9e      0x14f lib/ls1c_uart.o
 .debug_line    0x0000000000000bed      0x1b9 lib/ls1c_spi.o
 .debug_line    0x0000000000000da6      0x110 lib/ls1c_gpio.o
 .debug_line    0x0000000000000eb6       0xc5 lib/ls1c_pwm.o
 .debug_line    0x0000000000000f7b       0xa5 example/test_delay.o
 .debug_line    0x0000000000001020      0x187 example/test_can.o
 .debug_line    0x00000000000011a7       0xbb example/test_i2c.o
 .debug_line    0x0000000000001262       0xb8 example/test_fpu.o
 .debug_line    0x000000000000131a       0x7a example/test_timer.o
 .debug_line    0x0000000000001394       0x69 example/led.o
 .debug_line    0x00000000000013fd       0xa1 example/test_gpio.o
 .debug_line    0x000000000000149e       0x6d example/test_sys_tick.o
 .debug_line    0x000000000000150b      0x10f example/test_uart.o
 .debug_line    0x000000000000161a      0x16b example/test_spi.o
 .debug_line    0x0000000000001785       0xf7 example/test_simulate_i2c.o
 .debug_line    0x000000000000187c       0xb3 example/test_pwm.o
 .debug_line    0x000000000000192f       0x5a app/main.o
 .debug_line    0x0000000000001989       0x2d libc/ctype.o
 .debug_line    0x00000000000019b6       0x5e libc/printf.o
 .debug_line    0x0000000000001a14       0x48 libc/strcspn.o
 .debug_line    0x0000000000001a5c       0x59 libc/sprintf.o
 .debug_line    0x0000000000001ab5       0x4e libc/strstr.o
 .debug_line    0x0000000000001b03       0x41 libc/strlen.o
 .debug_line    0x0000000000001b44       0x43 libc/strcmp.o
 .debug_line    0x0000000000001b87       0x61 libc/strcpy.o
 .debug_line    0x0000000000001be8       0x5c libc/modf.o
 .debug_line    0x0000000000001c44       0x62 libc/memcpy.o
 .debug_line    0x0000000000001ca6       0x49 libc/strichr.o
 .debug_line    0x0000000000001cef       0x45 libc/strcat.o
 .debug_line    0x0000000000001d34       0x44 libc/strtoupp.o
 .debug_line    0x0000000000001d78       0x4d libc/fls.o
 .debug_line    0x0000000000001dc5       0xf1 libc/scanf.o
 .debug_line    0x0000000000001eb6       0x41 libc/toupper.o
 .debug_line    0x0000000000001ef7       0x5c libc/strncpy.o
 .debug_line    0x0000000000001f53      0x114 libc/atob.o
 .debug_line    0x0000000000002067      0x2d1 libc/vsprintf.o
 .debug_line    0x0000000000002338       0x3f libc/ffs.o
 .debug_line    0x0000000000002377       0x71 libc/str_fmt.o
 .debug_line    0x00000000000023e8       0x43 libc/strchr.o
 .debug_line    0x000000000000242b       0x67 libm/s_fabs.o
 .debug_line    0x0000000000002492       0xa0 libm/s_scalbn.o
 .debug_line    0x0000000000002532      0x236 libm/e_pow.o
 .debug_line    0x0000000000002768       0xea libm/e_sqrt.o
 .debug_line    0x0000000000002852       0x6c libm/s_copysign.o
 .debug_line    0x00000000000028be       0xf3 os/getchar.o
 .debug_line    0x00000000000029b1      0x25f os/mem.o
 .debug_line    0x0000000000002c10        0x0 os/testFun.o
 .debug_line    0x0000000000002c10       0x4d os/stdlib.o
 .debug_line    0x0000000000002c5d      0x278 os/env.o
 .debug_line    0x0000000000002ed5      0x133 os/common_fun.o
 .debug_line    0x0000000000003008       0xc6 os/os.o
 .debug_line    0x00000000000030ce      0x28f os/shell.o
 .debug_line    0x000000000000335d       0x5c os/rand.o
 .debug_line    0x00000000000033b9      0x806 os/thread.o
 .debug_line    0x0000000000003bbf      0x474 os/net/synMain.o
 .debug_line    0x0000000000004033       0xf0 os/net/mii.o
 .debug_line    0x0000000000004123       0xd4 os/net/synopGMAC_plat.o
 .debug_line    0x00000000000041f7     0x1835 os/net/synopGMAC_Dev.o
 .debug_line    0x0000000000005a2c       0x1d os/net/lwip-1.4.1/src/core/dhcp.o
 .debug_line    0x0000000000005a49       0x1d os/net/lwip-1.4.1/src/core/mem.o
 .debug_line    0x0000000000005a66       0x60 os/net/lwip-1.4.1/src/core/init.o
 .debug_line    0x0000000000005ac6      0x130 os/net/lwip-1.4.1/src/core/memp.o
 .debug_line    0x0000000000005bf6       0xed os/net/lwip-1.4.1/src/core/sys.o
 .debug_line    0x0000000000005ce3      0x618 os/net/lwip-1.4.1/src/core/tcp_in.o
 .debug_line    0x00000000000062fb      0x2cc os/net/lwip-1.4.1/src/core/dns.o
 .debug_line    0x00000000000065c7       0x1d os/net/lwip-1.4.1/src/core/raw.o
 .debug_line    0x00000000000065e4      0x583 os/net/lwip-1.4.1/src/core/tcp.o
 .debug_line    0x0000000000006b67       0xa7 os/net/lwip-1.4.1/src/core/def.o
 .debug_line    0x0000000000006c0e      0x22f os/net/lwip-1.4.1/src/core/netif.o
 .debug_line    0x0000000000006e3d       0x1d os/net/lwip-1.4.1/src/core/stats.o
 .debug_line    0x0000000000006e5a      0x21a os/net/lwip-1.4.1/src/core/timers.o
 .debug_line    0x0000000000007074      0x39b os/net/lwip-1.4.1/src/core/pbuf.o
 .debug_line    0x000000000000740f      0x2d7 os/net/lwip-1.4.1/src/core/udp.o
 .debug_line    0x00000000000076e6      0x528 os/net/lwip-1.4.1/src/core/tcp_out.o
 .debug_line    0x0000000000007c0e       0x1d os/net/lwip-1.4.1/src/core/ipv4/ip_frag.o
 .debug_line    0x0000000000007c2b       0x1d os/net/lwip-1.4.1/src/core/ipv4/inet.o
 .debug_line    0x0000000000007c48      0x1e6 os/net/lwip-1.4.1/src/core/ipv4/ip_addr.o
 .debug_line    0x0000000000007e2e      0x31b os/net/lwip-1.4.1/src/core/ipv4/igmp.o
 .debug_line    0x0000000000008149      0x25d os/net/lwip-1.4.1/src/core/ipv4/ip.o
 .debug_line    0x00000000000083a6       0x1d os/net/lwip-1.4.1/src/core/ipv4/autoip.o
 .debug_line    0x00000000000083c3      0x1b6 os/net/lwip-1.4.1/src/core/ipv4/inet_chksum.o
 .debug_line    0x0000000000008579      0x1a6 os/net/lwip-1.4.1/src/core/ipv4/icmp.o
 .debug_line    0x000000000000871f      0x1ca os/net/lwip-1.4.1/src/api/netdb.o
 .debug_line    0x00000000000088e9      0x322 os/net/lwip-1.4.1/src/api/api_lib.o
 .debug_line    0x0000000000008c0b      0x194 os/net/lwip-1.4.1/src/api/netifapi.o
 .debug_line    0x0000000000008d9f      0x2a8 os/net/lwip-1.4.1/src/api/tcpip.o
 .debug_line    0x0000000000009047      0x18c os/net/lwip-1.4.1/src/api/netbuf.o
 .debug_line    0x00000000000091d3       0x1d os/net/lwip-1.4.1/src/api/err.o
 .debug_line    0x00000000000091f0      0x592 os/net/lwip-1.4.1/src/api/api_msg.o
 .debug_line    0x0000000000009782      0x85d os/net/lwip-1.4.1/src/api/sockets.o
 .debug_line    0x0000000000009fdf       0x1d os/net/lwip-1.4.1/src/netif/slipif.o
 .debug_line    0x0000000000009ffc      0x3c9 os/net/lwip-1.4.1/src/netif/etharp.o
 .debug_line    0x000000000000a3c5      0x2ab os/net/lwip-1.4.1/src/netif/ethernetif.o
 .debug_line    0x000000000000a670      0x276 os/net/lwip-1.4.1/src/arch/sys_arch.o
 .debug_line    0x000000000000a8e6      0x3cc os/hardware/spi_flash.o
 .debug_line    0x000000000000acb2       0x64 os/hardware/reboot.o
 .debug_line    0x000000000000ad16      0x14a os/filesys/netio.o
 .debug_line    0x000000000000ae60      0x3fc os/filesys/tftplib.o
 .debug_line    0x000000000000b25c      0x23a os/filesys/filesys.o
 .debug_line    0x000000000000b496      0x291 os/filesys/loadelf.o
 .debug_line    0x000000000000b727       0x9e os/filesys/load.o

.debug_frame    0x0000000000000000     0x5ab8
 .debug_frame   0x0000000000000000       0x50 lib/ls1c_delay.o
 .debug_frame   0x0000000000000050       0x70 lib/ls1c_cache.o
 .debug_frame   0x00000000000000c0       0xa4 lib/ls1c_can.o
 .debug_frame   0x0000000000000164      0x178 lib/ls1c_simulate_i2c.o
 .debug_frame   0x00000000000002dc       0x80 lib/ls1c_timer.o
 .debug_frame   0x000000000000035c       0x50 lib/ls1c_pin.o
 .debug_frame   0x00000000000003ac      0x108 lib/ls1c_irq.o
 .debug_frame   0x00000000000004b4      0x170 lib/ls1c_i2c.o
 .debug_frame   0x0000000000000624       0x80 lib/ls1c_public.o
 .debug_frame   0x00000000000006a4       0x78 lib/ls1c_sys_tick.o
 .debug_frame   0x000000000000071c       0x98 lib/ls1c_clock.o
 .debug_frame   0x00000000000007b4       0xf0 lib/ls1c_uart.o
 .debug_frame   0x00000000000008a4      0x130 lib/ls1c_spi.o
 .debug_frame   0x00000000000009d4       0x7c lib/ls1c_gpio.o
 .debug_frame   0x0000000000000a50       0x74 lib/ls1c_pwm.o
 .debug_frame   0x0000000000000ac4       0x58 example/test_delay.o
 .debug_frame   0x0000000000000b1c       0xa0 example/test_can.o
 .debug_frame   0x0000000000000bbc       0x38 example/test_i2c.o
 .debug_frame   0x0000000000000bf4       0xc8 example/test_fpu.o
 .debug_frame   0x0000000000000cbc       0x44 example/test_timer.o
 .debug_frame   0x0000000000000d00       0x48 example/led.o
 .debug_frame   0x0000000000000d48       0x78 example/test_gpio.o
 .debug_frame   0x0000000000000dc0       0x30 example/test_sys_tick.o
 .debug_frame   0x0000000000000df0       0xd0 example/test_uart.o
 .debug_frame   0x0000000000000ec0      0x148 example/test_spi.o
 .debug_frame   0x0000000000001008       0x68 example/test_simulate_i2c.o
 .debug_frame   0x0000000000001070       0x60 example/test_pwm.o
 .debug_frame   0x00000000000010d0       0x50 app/main.o
 .debug_frame   0x0000000000001120       0x30 libc/printf.o
 .debug_frame   0x0000000000001150       0x20 libc/strcspn.o
 .debug_frame   0x0000000000001170       0x28 libc/sprintf.o
 .debug_frame   0x0000000000001198       0x20 libc/strstr.o
 .debug_frame   0x00000000000011b8       0x20 libc/strlen.o
 .debug_frame   0x00000000000011d8       0x20 libc/strcmp.o
 .debug_frame   0x00000000000011f8       0x30 libc/strcpy.o
 .debug_frame   0x0000000000001228       0x2c libc/modf.o
 .debug_frame   0x0000000000001254       0x30 libc/memcpy.o
 .debug_frame   0x0000000000001284       0x20 libc/strichr.o
 .debug_frame   0x00000000000012a4       0x20 libc/strcat.o
 .debug_frame   0x00000000000012c4       0x28 libc/strtoupp.o
 .debug_frame   0x00000000000012ec       0x20 libc/fls.o
 .debug_frame   0x000000000000130c       0x54 libc/scanf.o
 .debug_frame   0x0000000000001360       0x20 libc/toupper.o
 .debug_frame   0x0000000000001380       0x20 libc/strncpy.o
 .debug_frame   0x00000000000013a0       0x74 libc/atob.o
 .debug_frame   0x0000000000001414       0xa8 libc/vsprintf.o
 .debug_frame   0x00000000000014bc       0x20 libc/ffs.o
 .debug_frame   0x00000000000014dc       0x30 libc/str_fmt.o
 .debug_frame   0x000000000000150c       0x20 libc/strchr.o
 .debug_frame   0x000000000000152c       0x20 libm/s_fabs.o
 .debug_frame   0x000000000000154c       0x2c libm/s_scalbn.o
 .debug_frame   0x0000000000001578       0x64 libm/e_pow.o
 .debug_frame   0x00000000000015dc       0x30 libm/e_sqrt.o
 .debug_frame   0x000000000000160c       0x20 libm/s_copysign.o
 .debug_frame   0x000000000000162c       0x8c os/getchar.o
 .debug_frame   0x00000000000016b8      0x14c os/mem.o
 .debug_frame   0x0000000000001804       0x20 os/stdlib.o
 .debug_frame   0x0000000000001824      0x1ec os/env.o
 .debug_frame   0x0000000000001a10      0x104 os/common_fun.o
 .debug_frame   0x0000000000001b14      0x120 os/os.o
 .debug_frame   0x0000000000001c34       0xec os/shell.o
 .debug_frame   0x0000000000001d20       0x40 os/rand.o
 .debug_frame   0x0000000000001d60      0x4f4 os/thread.o
 .debug_frame   0x0000000000002254      0x194 os/net/synMain.o
 .debug_frame   0x00000000000023e8       0x6c os/net/mii.o
 .debug_frame   0x0000000000002454       0xa4 os/net/synopGMAC_plat.o
 .debug_frame   0x00000000000024f8      0xce4 os/net/synopGMAC_Dev.o
 .debug_frame   0x00000000000031dc       0x28 os/net/lwip-1.4.1/src/core/init.o
 .debug_frame   0x0000000000003204       0x54 os/net/lwip-1.4.1/src/core/memp.o
 .debug_frame   0x0000000000003258       0x2c os/net/lwip-1.4.1/src/core/sys.o
 .debug_frame   0x0000000000003284       0xa4 os/net/lwip-1.4.1/src/core/tcp_in.o
 .debug_frame   0x0000000000003328       0xf8 os/net/lwip-1.4.1/src/core/dns.o
 .debug_frame   0x0000000000003420      0x318 os/net/lwip-1.4.1/src/core/tcp.o
 .debug_frame   0x0000000000003738       0x50 os/net/lwip-1.4.1/src/core/def.o
 .debug_frame   0x0000000000003788      0x120 os/net/lwip-1.4.1/src/core/netif.o
 .debug_frame   0x00000000000038a8       0xec os/net/lwip-1.4.1/src/core/timers.o
 .debug_frame   0x0000000000003994      0x1f0 os/net/lwip-1.4.1/src/core/pbuf.o
 .debug_frame   0x0000000000003b84      0x110 os/net/lwip-1.4.1/src/core/udp.o
 .debug_frame   0x0000000000003c94      0x1c0 os/net/lwip-1.4.1/src/core/tcp_out.o
 .debug_frame   0x0000000000003e54       0x94 os/net/lwip-1.4.1/src/core/ipv4/ip_addr.o
 .debug_frame   0x0000000000003ee8      0x170 os/net/lwip-1.4.1/src/core/ipv4/igmp.o
 .debug_frame   0x0000000000004058       0xac os/net/lwip-1.4.1/src/core/ipv4/ip.o
 .debug_frame   0x0000000000004104       0xa8 os/net/lwip-1.4.1/src/core/ipv4/inet_chksum.o
 .debug_frame   0x00000000000041ac       0x5c os/net/lwip-1.4.1/src/core/ipv4/icmp.o
 .debug_frame   0x0000000000004208       0x90 os/net/lwip-1.4.1/src/api/netdb.o
 .debug_frame   0x0000000000004298      0x214 os/net/lwip-1.4.1/src/api/api_lib.o
 .debug_frame   0x00000000000044ac       0xa0 os/net/lwip-1.4.1/src/api/netifapi.o
 .debug_frame   0x000000000000454c      0x184 os/net/lwip-1.4.1/src/api/tcpip.o
 .debug_frame   0x00000000000046d0       0xdc os/net/lwip-1.4.1/src/api/netbuf.o
 .debug_frame   0x00000000000047ac      0x310 os/net/lwip-1.4.1/src/api/api_msg.o
 .debug_frame   0x0000000000004abc      0x2e4 os/net/lwip-1.4.1/src/api/sockets.o
 .debug_frame   0x0000000000004da0      0x188 os/net/lwip-1.4.1/src/netif/etharp.o
 .debug_frame   0x0000000000004f28      0x108 os/net/lwip-1.4.1/src/netif/ethernetif.o
 .debug_frame   0x0000000000005030      0x200 os/net/lwip-1.4.1/src/arch/sys_arch.o
 .debug_frame   0x0000000000005230      0x2ec os/hardware/spi_flash.o
 .debug_frame   0x000000000000551c       0x28 os/hardware/reboot.o
 .debug_frame   0x0000000000005544       0xd0 os/filesys/netio.o
 .debug_frame   0x0000000000005614      0x1d4 os/filesys/tftplib.o
 .debug_frame   0x00000000000057e8      0x168 os/filesys/filesys.o
 .debug_frame   0x0000000000005950      0x104 os/filesys/loadelf.o
 .debug_frame   0x0000000000005a54       0x64 os/filesys/load.o

.debug_loc      0x0000000000000000    0x1bd21
 .debug_loc     0x0000000000000000       0xcc lib/ls1c_delay.o
 .debug_loc     0x00000000000000cc      0x2d3 lib/ls1c_cache.o
 .debug_loc     0x000000000000039f      0x2b7 lib/ls1c_can.o
 .debug_loc     0x0000000000000656      0x316 lib/ls1c_simulate_i2c.o
 .debug_loc     0x000000000000096c      0x147 lib/ls1c_timer.o
 .debug_loc     0x0000000000000ab3      0x280 lib/ls1c_pin.o
 .debug_loc     0x0000000000000d33      0x1f2 lib/ls1c_irq.o
 .debug_loc     0x0000000000000f25      0x5cc lib/ls1c_i2c.o
 .debug_loc     0x00000000000014f1       0x4f lib/ls1c_public.o
 .debug_loc     0x0000000000001540       0x6b lib/ls1c_sys_tick.o
 .debug_loc     0x00000000000015ab      0x172 lib/ls1c_clock.o
 .debug_loc     0x000000000000171d      0x3e1 lib/ls1c_uart.o
 .debug_loc     0x0000000000001afe      0x39c lib/ls1c_spi.o
 .debug_loc     0x0000000000001e9a      0x304 lib/ls1c_gpio.o
 .debug_loc     0x000000000000219e      0x220 lib/ls1c_pwm.o
 .debug_loc     0x00000000000023be       0x5d example/test_delay.o
 .debug_loc     0x000000000000241b      0x28a example/test_can.o
 .debug_loc     0x00000000000026a5       0x5c example/test_i2c.o
 .debug_loc     0x0000000000002701      0x153 example/test_fpu.o
 .debug_loc     0x0000000000002854       0x64 example/test_timer.o
 .debug_loc     0x00000000000028b8       0x6e example/led.o
 .debug_loc     0x0000000000002926       0x70 example/test_gpio.o
 .debug_loc     0x0000000000002996       0x1f example/test_sys_tick.o
 .debug_loc     0x00000000000029b5      0x114 example/test_uart.o
 .debug_loc     0x0000000000002ac9      0x42f example/test_spi.o
 .debug_loc     0x0000000000002ef8       0xf3 example/test_simulate_i2c.o
 .debug_loc     0x0000000000002feb       0x5d example/test_pwm.o
 .debug_loc     0x0000000000003048       0xb0 app/main.o
 .debug_loc     0x00000000000030f8       0x82 libc/printf.o
 .debug_loc     0x000000000000317a       0x64 libc/sprintf.o
 .debug_loc     0x00000000000031de       0x3c libc/strstr.o
 .debug_loc     0x000000000000321a       0x34 libc/strcmp.o
 .debug_loc     0x000000000000324e       0x89 libc/strcpy.o
 .debug_loc     0x00000000000032d7      0x14f libc/modf.o
 .debug_loc     0x0000000000003426       0x83 libc/memcpy.o
 .debug_loc     0x00000000000034a9       0x48 libc/strtoupp.o
 .debug_loc     0x00000000000034f1      0x33a libc/scanf.o
 .debug_loc     0x000000000000382b       0x13 libc/toupper.o
 .debug_loc     0x000000000000383e       0x1e libc/strncpy.o
 .debug_loc     0x000000000000385c      0x3b6 libc/atob.o
 .debug_loc     0x0000000000003c12     0x13dd libc/vsprintf.o
 .debug_loc     0x0000000000004fef      0x139 libc/str_fmt.o
 .debug_loc     0x0000000000005128       0x29 libc/strchr.o
 .debug_loc     0x0000000000005151      0x1e9 libm/s_scalbn.o
 .debug_loc     0x000000000000533a      0xfda libm/e_pow.o
 .debug_loc     0x0000000000006314      0x373 libm/e_sqrt.o
 .debug_loc     0x0000000000006687      0x143 os/getchar.o
 .debug_loc     0x00000000000067ca      0x7b0 os/mem.o
 .debug_loc     0x0000000000006f7a       0x52 os/stdlib.o
 .debug_loc     0x0000000000006fcc      0xa93 os/env.o
 .debug_loc     0x0000000000007a5f      0x555 os/common_fun.o
 .debug_loc     0x0000000000007fb4      0x184 os/os.o
 .debug_loc     0x0000000000008138      0x602 os/shell.o
 .debug_loc     0x000000000000873a       0x3c os/rand.o
 .debug_loc     0x0000000000008776     0x1776 os/thread.o
 .debug_loc     0x0000000000009eec      0xab5 os/net/synMain.o
 .debug_loc     0x000000000000a9a1      0x25a os/net/mii.o
 .debug_loc     0x000000000000abfb      0x285 os/net/synopGMAC_plat.o
 .debug_loc     0x000000000000ae80     0x13fb os/net/synopGMAC_Dev.o
 .debug_loc     0x000000000000c27b       0x1f os/net/lwip-1.4.1/src/core/init.o
 .debug_loc     0x000000000000c29a      0x165 os/net/lwip-1.4.1/src/core/memp.o
 .debug_loc     0x000000000000c3ff       0x53 os/net/lwip-1.4.1/src/core/sys.o
 .debug_loc     0x000000000000c452      0x76a os/net/lwip-1.4.1/src/core/tcp_in.o
 .debug_loc     0x000000000000cbbc      0x725 os/net/lwip-1.4.1/src/core/dns.o
 .debug_loc     0x000000000000d2e1      0xffa os/net/lwip-1.4.1/src/core/tcp.o
 .debug_loc     0x000000000000e2db       0x62 os/net/lwip-1.4.1/src/core/def.o
 .debug_loc     0x000000000000e33d      0x3de os/net/lwip-1.4.1/src/core/netif.o
 .debug_loc     0x000000000000e71b      0x387 os/net/lwip-1.4.1/src/core/timers.o
 .debug_loc     0x000000000000eaa2      0xd91 os/net/lwip-1.4.1/src/core/pbuf.o
 .debug_loc     0x000000000000f833      0x86b os/net/lwip-1.4.1/src/core/udp.o
 .debug_loc     0x000000000001009e     0x12d2 os/net/lwip-1.4.1/src/core/tcp_out.o
 .debug_loc     0x0000000000011370      0x278 os/net/lwip-1.4.1/src/core/ipv4/ip_addr.o
 .debug_loc     0x00000000000115e8      0x795 os/net/lwip-1.4.1/src/core/ipv4/igmp.o
 .debug_loc     0x0000000000011d7d      0x62c os/net/lwip-1.4.1/src/core/ipv4/ip.o
 .debug_loc     0x00000000000123a9      0x4f4 os/net/lwip-1.4.1/src/core/ipv4/inet_chksum.o
 .debug_loc     0x000000000001289d      0x1e1 os/net/lwip-1.4.1/src/core/ipv4/icmp.o
 .debug_loc     0x0000000000012a7e      0x4c6 os/net/lwip-1.4.1/src/api/netdb.o
 .debug_loc     0x0000000000012f44      0xe31 os/net/lwip-1.4.1/src/api/api_lib.o
 .debug_loc     0x0000000000013d75      0x235 os/net/lwip-1.4.1/src/api/netifapi.o
 .debug_loc     0x0000000000013faa      0x4f5 os/net/lwip-1.4.1/src/api/tcpip.o
 .debug_loc     0x000000000001449f      0x29e os/net/lwip-1.4.1/src/api/netbuf.o
 .debug_loc     0x000000000001473d     0x10f3 os/net/lwip-1.4.1/src/api/api_msg.o
 .debug_loc     0x0000000000015830     0x1d8a os/net/lwip-1.4.1/src/api/sockets.o
 .debug_loc     0x00000000000175ba      0xbb4 os/net/lwip-1.4.1/src/netif/etharp.o
 .debug_loc     0x000000000001816e      0x39d os/net/lwip-1.4.1/src/netif/ethernetif.o
 .debug_loc     0x000000000001850b      0x4d1 os/net/lwip-1.4.1/src/arch/sys_arch.o
 .debug_loc     0x00000000000189dc      0xd98 os/hardware/spi_flash.o
 .debug_loc     0x0000000000019774       0x1f os/hardware/reboot.o
 .debug_loc     0x0000000000019793      0x4b9 os/filesys/netio.o
 .debug_loc     0x0000000000019c4c      0xbb1 os/filesys/tftplib.o
 .debug_loc     0x000000000001a7fd      0x74a os/filesys/filesys.o
 .debug_loc     0x000000000001af47      0xd00 os/filesys/loadelf.o
 .debug_loc     0x000000000001bc47       0xda os/filesys/load.o

.debug_str      0x0000000000000000     0xafa0
 .debug_str     0x0000000000000000       0x7f lib/ls1c_delay.o
 .debug_str     0x000000000000007f      0x163 lib/ls1c_cache.o
                                        0x1e3 (size before relaxing)
 .debug_str     0x00000000000001e2      0x1f8 lib/ls1c_can.o
                                        0x25e (size before relaxing)
 .debug_str     0x00000000000003da      0x205 lib/ls1c_simulate_i2c.o
                                        0x25f (size before relaxing)
 .debug_str     0x00000000000005df       0xc0 lib/ls1c_timer.o
                                        0x13e (size before relaxing)
 .debug_str     0x000000000000069f       0xd8 lib/ls1c_pin.o
                                        0x137 (size before relaxing)
 .debug_str     0x0000000000000777      0x1aa lib/ls1c_irq.o
                                        0x2b5 (size before relaxing)
 .debug_str     0x0000000000000921      0x21c lib/ls1c_i2c.o
                                        0x294 (size before relaxing)
 .debug_str     0x0000000000000b3d       0x73 lib/ls1c_public.o
                                         0xd7 (size before relaxing)
 .debug_str     0x0000000000000bb0      0x144 lib/ls1c_sys_tick.o
                                        0x233 (size before relaxing)
 .debug_str     0x0000000000000cf4       0x80 lib/ls1c_clock.o
                                        0x10f (size before relaxing)
 .debug_str     0x0000000000000d74      0x1b1 lib/ls1c_uart.o
                                        0x2a2 (size before relaxing)
 .debug_str     0x0000000000000f25      0x11a lib/ls1c_spi.o
                                        0x1ee (size before relaxing)
 .debug_str     0x000000000000103f      0x11d lib/ls1c_gpio.o
                                        0x1fc (size before relaxing)
 .debug_str     0x000000000000115c       0x9e lib/ls1c_pwm.o
                                        0x19c (size before relaxing)
 .debug_str     0x00000000000011fa       0x41 example/test_delay.o
                                         0xd2 (size before relaxing)
 .debug_str     0x000000000000123b       0xfc example/test_can.o
                                        0x358 (size before relaxing)
 .debug_str     0x0000000000001337       0xe8 example/test_i2c.o
                                        0x261 (size before relaxing)
 .debug_str     0x000000000000141f       0x86 example/test_fpu.o
                                         0xe5 (size before relaxing)
 .debug_str     0x00000000000014a5       0x5b example/test_timer.o
                                        0x130 (size before relaxing)
 .debug_str     0x0000000000001500       0x2f example/led.o
                                         0xb6 (size before relaxing)
 .debug_str     0x000000000000152f       0x7b example/test_gpio.o
                                        0x1b4 (size before relaxing)
 .debug_str     0x00000000000015aa       0x36 example/test_sys_tick.o
                                         0x8f (size before relaxing)
 .debug_str     0x00000000000015e0       0xe5 example/test_uart.o
                                        0x2ba (size before relaxing)
 .debug_str     0x00000000000016c5      0x3e7 example/test_spi.o
                                        0x574 (size before relaxing)
 .debug_str     0x0000000000001aac       0x6f example/test_simulate_i2c.o
                                        0x1df (size before relaxing)
 .debug_str     0x0000000000001b1b       0x49 example/test_pwm.o
                                        0x134 (size before relaxing)
 .debug_str     0x0000000000001b64       0x31 app/main.o
                                         0xf1 (size before relaxing)
 .debug_str     0x0000000000001b95       0x17 libc/ctype.o
                                         0x5e (size before relaxing)
 .debug_str     0x0000000000001bac       0x39 libc/printf.o
                                         0xbf (size before relaxing)
 .debug_str     0x0000000000001be5       0x17 libc/strcspn.o
                                         0xd1 (size before relaxing)
 .debug_str     0x0000000000001bfc        0xf libc/sprintf.o
                                         0x7f (size before relaxing)
 .debug_str     0x0000000000001c0b        0xe libc/strstr.o
                                         0xcf (size before relaxing)
 .debug_str     0x0000000000001c19       0x15 libc/strlen.o
                                         0xcf (size before relaxing)
 .debug_str     0x0000000000001c2e       0x15 libc/strcmp.o
                                         0xcf (size before relaxing)
 .debug_str     0x0000000000001c43       0x27 libc/strcpy.o
                                         0xe8 (size before relaxing)
 .debug_str     0x0000000000001c6a       0x2a libc/modf.o
                                         0x64 (size before relaxing)
 .debug_str     0x0000000000001c94        0xe libc/memcpy.o
                                         0xe3 (size before relaxing)
 .debug_str     0x0000000000001ca2       0x17 libc/strichr.o
                                         0xd1 (size before relaxing)
 .debug_str     0x0000000000001cb9       0x15 libc/strcat.o
                                         0xcf (size before relaxing)
 .debug_str     0x0000000000001cce       0x1b libc/strtoupp.o
                                         0xd5 (size before relaxing)
 .debug_str     0x0000000000001ce9        0xb libc/fls.o
                                         0x45 (size before relaxing)
 .debug_str     0x0000000000001cf4       0x24 libc/scanf.o
                                        0x127 (size before relaxing)
 .debug_str     0x0000000000001d18       0x29 libc/toupper.o
                                         0x75 (size before relaxing)
 .debug_str     0x0000000000001d41       0x17 libc/strncpy.o
                                         0xd8 (size before relaxing)
 .debug_str     0x0000000000001d58       0x4a libc/atob.o
                                        0x11c (size before relaxing)
 .debug_str     0x0000000000001da2       0xb8 libc/vsprintf.o
                                        0x1d4 (size before relaxing)
 .debug_str     0x0000000000001e5a        0xb libc/ffs.o
                                         0xc5 (size before relaxing)
 .debug_str     0x0000000000001e65       0x17 libc/str_fmt.o
                                         0xd6 (size before relaxing)
 .debug_str     0x0000000000001e7c       0x15 libc/strchr.o
                                         0xcf (size before relaxing)
 .debug_str     0x0000000000001e91       0x3a libm/s_fabs.o
                                        0x111 (size before relaxing)
 .debug_str     0x0000000000001ecb       0x33 libm/s_scalbn.o
                                        0x134 (size before relaxing)
 .debug_str     0x0000000000001efe       0x63 libm/e_pow.o
                                        0x178 (size before relaxing)
 .debug_str     0x0000000000001f61       0x22 libm/e_sqrt.o
                                        0x12d (size before relaxing)
 .debug_str     0x0000000000001f83       0x1b libm/s_copysign.o
                                        0x114 (size before relaxing)
 .debug_str     0x0000000000001f9e       0xf6 os/getchar.o
                                        0x2df (size before relaxing)
 .debug_str     0x0000000000002094      0x1f5 os/mem.o
                                        0x33a (size before relaxing)
 .debug_str     0x0000000000002289       0x11 os/stdlib.o
                                         0x5e (size before relaxing)
 .debug_str     0x000000000000229a      0x1d7 os/env.o
                                        0x2fa (size before relaxing)
 .debug_str     0x0000000000002471       0x9e os/common_fun.o
                                        0x13c (size before relaxing)
 .debug_str     0x000000000000250f      0x18a os/os.o
                                        0x2a4 (size before relaxing)
 .debug_str     0x0000000000002699      0x272 os/shell.o
                                        0x36a (size before relaxing)
 .debug_str     0x000000000000290b       0x1d os/rand.o
                                         0xe4 (size before relaxing)
 .debug_str     0x0000000000002928      0x6aa os/thread.o
                                        0x9ac (size before relaxing)
 .debug_str     0x0000000000002fd2     0x154f os/net/synMain.o
                                       0x1827 (size before relaxing)
 .debug_str     0x0000000000004521       0x85 os/net/mii.o
                                        0x1f2 (size before relaxing)
 .debug_str     0x00000000000045a6       0xd3 os/net/synopGMAC_plat.o
                                        0x30b (size before relaxing)
 .debug_str     0x0000000000004679     0x2c9e os/net/synopGMAC_Dev.o
                                       0x3ba7 (size before relaxing)
 .debug_str     0x0000000000007317       0x22 os/net/lwip-1.4.1/src/core/dhcp.o
                                         0xd7 (size before relaxing)
 .debug_str     0x0000000000007339       0x21 os/net/lwip-1.4.1/src/core/mem.o
                                         0xd6 (size before relaxing)
 .debug_str     0x000000000000735a       0x2c os/net/lwip-1.4.1/src/core/init.o
                                         0xef (size before relaxing)
 .debug_str     0x0000000000007386      0x179 os/net/lwip-1.4.1/src/core/memp.o
                                        0x25a (size before relaxing)
 .debug_str     0x00000000000074ff       0x50 os/net/lwip-1.4.1/src/core/sys.o
                                        0x182 (size before relaxing)
 .debug_str     0x000000000000754f      0x4c2 os/net/lwip-1.4.1/src/core/tcp_in.o
                                        0x7d2 (size before relaxing)
 .debug_str     0x0000000000007a11      0x224 os/net/lwip-1.4.1/src/core/dns.o
                                        0x42f (size before relaxing)
 .debug_str     0x0000000000007c35       0x21 os/net/lwip-1.4.1/src/core/raw.o
                                         0xd6 (size before relaxing)
 .debug_str     0x0000000000007c56      0x372 os/net/lwip-1.4.1/src/core/tcp.o
                                        0x9bb (size before relaxing)
 .debug_str     0x0000000000007fc8       0x4d os/net/lwip-1.4.1/src/core/def.o
                                        0x120 (size before relaxing)
 .debug_str     0x0000000000008015      0x104 os/net/lwip-1.4.1/src/core/netif.o
                                        0x616 (size before relaxing)
 .debug_str     0x0000000000008119       0x23 os/net/lwip-1.4.1/src/core/stats.o
                                         0xd8 (size before relaxing)
 .debug_str     0x000000000000813c      0x119 os/net/lwip-1.4.1/src/core/timers.o
                                        0x6b7 (size before relaxing)
 .debug_str     0x0000000000008255      0x230 os/net/lwip-1.4.1/src/core/pbuf.o
                                        0x7af (size before relaxing)
 .debug_str     0x0000000000008485      0x167 os/net/lwip-1.4.1/src/core/udp.o
                                        0x571 (size before relaxing)
 .debug_str     0x00000000000085ec      0x1c8 os/net/lwip-1.4.1/src/core/tcp_out.o
                                        0x7ec (size before relaxing)
 .debug_str     0x00000000000087b4       0x2a os/net/lwip-1.4.1/src/core/ipv4/ip_frag.o
                                         0xe4 (size before relaxing)
 .debug_str     0x00000000000087de       0x27 os/net/lwip-1.4.1/src/core/ipv4/inet.o
                                         0xdc (size before relaxing)
 .debug_str     0x0000000000008805       0xb5 os/net/lwip-1.4.1/src/core/ipv4/ip_addr.o
                                        0x2ab (size before relaxing)
 .debug_str     0x00000000000088ba      0x1d2 os/net/lwip-1.4.1/src/core/ipv4/igmp.o
                                        0x569 (size before relaxing)
 .debug_str     0x0000000000008a8c       0xb5 os/net/lwip-1.4.1/src/core/ipv4/ip.o
                                        0x3a8 (size before relaxing)
 .debug_str     0x0000000000008b41       0x29 os/net/lwip-1.4.1/src/core/ipv4/autoip.o
                                         0xde (size before relaxing)
 .debug_str     0x0000000000008b6a       0xbb os/net/lwip-1.4.1/src/core/ipv4/inet_chksum.o
                                        0x1e2 (size before relaxing)
 .debug_str     0x0000000000008c25       0x83 os/net/lwip-1.4.1/src/core/ipv4/icmp.o
                                        0x3b9 (size before relaxing)
 .debug_str     0x0000000000008ca8      0x1d7 os/net/lwip-1.4.1/src/api/netdb.o
                                        0x437 (size before relaxing)
 .debug_str     0x0000000000008e7f      0x3b6 os/net/lwip-1.4.1/src/api/api_lib.o
                                        0x9e0 (size before relaxing)
 .debug_str     0x0000000000009235       0xc1 os/net/lwip-1.4.1/src/api/netifapi.o
                                        0x36c (size before relaxing)
 .debug_str     0x00000000000092f6      0x1fe os/net/lwip-1.4.1/src/api/tcpip.o
                                        0x8cb (size before relaxing)
 .debug_str     0x00000000000094f4       0x9c os/net/lwip-1.4.1/src/api/netbuf.o
                                        0x303 (size before relaxing)
 .debug_str     0x0000000000009590       0x20 os/net/lwip-1.4.1/src/api/err.o
                                         0xd5 (size before relaxing)
 .debug_str     0x00000000000095b0      0x1ea os/net/lwip-1.4.1/src/api/api_msg.o
                                        0xa01 (size before relaxing)
 .debug_str     0x000000000000979a      0x3f4 os/net/lwip-1.4.1/src/api/sockets.o
                                        0xc39 (size before relaxing)
 .debug_str     0x0000000000009b8e       0x25 os/net/lwip-1.4.1/src/netif/slipif.o
                                         0xdf (size before relaxing)
 .debug_str     0x0000000000009bb3      0x328 os/net/lwip-1.4.1/src/netif/etharp.o
                                        0x670 (size before relaxing)
 .debug_str     0x0000000000009edb      0x17a os/net/lwip-1.4.1/src/netif/ethernetif.o
                                        0x5bf (size before relaxing)
 .debug_str     0x000000000000a055      0x1f7 os/net/lwip-1.4.1/src/arch/sys_arch.o
                                        0x674 (size before relaxing)
 .debug_str     0x000000000000a24c      0x458 os/hardware/spi_flash.o
                                        0x561 (size before relaxing)
 .debug_str     0x000000000000a6a4       0x5b os/hardware/reboot.o
                                         0xf5 (size before relaxing)
 .debug_str     0x000000000000a6ff      0x129 os/filesys/netio.o
                                        0x294 (size before relaxing)
 .debug_str     0x000000000000a828      0x1ab os/filesys/tftplib.o
                                        0x4d3 (size before relaxing)
 .debug_str     0x000000000000a9d3      0x1b2 os/filesys/filesys.o
                                        0x364 (size before relaxing)
 .debug_str     0x000000000000ab85      0x31f os/filesys/loadelf.o
                                        0x45e (size before relaxing)
 .debug_str     0x000000000000aea4       0xfc os/filesys/load.o
                                        0x2f4 (size before relaxing)

.comment        0x0000000000000000      0x7e0
 .comment       0x0000000000000000       0x12 lib/ls1c_delay.o
 .comment       0x0000000000000012       0x12 lib/ls1c_cache.o
 .comment       0x0000000000000024       0x12 lib/ls1c_can.o
 .comment       0x0000000000000036       0x12 lib/ls1c_simulate_i2c.o
 .comment       0x0000000000000048       0x12 lib/ls1c_timer.o
 .comment       0x000000000000005a       0x12 lib/ls1c_pin.o
 .comment       0x000000000000006c       0x12 lib/ls1c_irq.o
 .comment       0x000000000000007e       0x12 lib/ls1c_i2c.o
 .comment       0x0000000000000090       0x12 lib/ls1c_public.o
 .comment       0x00000000000000a2       0x12 lib/ls1c_sys_tick.o
 .comment       0x00000000000000b4       0x12 lib/ls1c_clock.o
 .comment       0x00000000000000c6       0x12 lib/ls1c_uart.o
 .comment       0x00000000000000d8       0x12 lib/ls1c_spi.o
 .comment       0x00000000000000ea       0x12 lib/ls1c_gpio.o
 .comment       0x00000000000000fc       0x12 lib/ls1c_pwm.o
 .comment       0x000000000000010e       0x12 example/test_delay.o
 .comment       0x0000000000000120       0x12 example/test_can.o
 .comment       0x0000000000000132       0x12 example/test_i2c.o
 .comment       0x0000000000000144       0x12 example/test_fpu.o
 .comment       0x0000000000000156       0x12 example/test_timer.o
 .comment       0x0000000000000168       0x12 example/led.o
 .comment       0x000000000000017a       0x12 example/test_gpio.o
 .comment       0x000000000000018c       0x12 example/test_sys_tick.o
 .comment       0x000000000000019e       0x12 example/test_uart.o
 .comment       0x00000000000001b0       0x12 example/test_spi.o
 .comment       0x00000000000001c2       0x12 example/test_simulate_i2c.o
 .comment       0x00000000000001d4       0x12 example/test_pwm.o
 .comment       0x00000000000001e6       0x12 app/main.o
 .comment       0x00000000000001f8       0x12 libc/ctype.o
 .comment       0x000000000000020a       0x12 libc/printf.o
 .comment       0x000000000000021c       0x12 libc/strcspn.o
 .comment       0x000000000000022e       0x12 libc/sprintf.o
 .comment       0x0000000000000240       0x12 libc/strstr.o
 .comment       0x0000000000000252       0x12 libc/strlen.o
 .comment       0x0000000000000264       0x12 libc/strcmp.o
 .comment       0x0000000000000276       0x12 libc/strcpy.o
 .comment       0x0000000000000288       0x12 libc/modf.o
 .comment       0x000000000000029a       0x12 libc/memcpy.o
 .comment       0x00000000000002ac       0x12 libc/strichr.o
 .comment       0x00000000000002be       0x12 libc/strcat.o
 .comment       0x00000000000002d0       0x12 libc/strtoupp.o
 .comment       0x00000000000002e2       0x12 libc/fls.o
 .comment       0x00000000000002f4       0x12 libc/scanf.o
 .comment       0x0000000000000306       0x12 libc/toupper.o
 .comment       0x0000000000000318       0x12 libc/strncpy.o
 .comment       0x000000000000032a       0x12 libc/atob.o
 .comment       0x000000000000033c       0x12 libc/vsprintf.o
 .comment       0x000000000000034e       0x12 libc/ffs.o
 .comment       0x0000000000000360       0x12 libc/str_fmt.o
 .comment       0x0000000000000372       0x12 libc/strchr.o
 .comment       0x0000000000000384       0x12 libm/s_fabs.o
 .comment       0x0000000000000396       0x12 libm/s_scalbn.o
 .comment       0x00000000000003a8       0x12 libm/e_pow.o
 .comment       0x00000000000003ba       0x12 libm/e_sqrt.o
 .comment       0x00000000000003cc       0x12 libm/s_copysign.o
 .comment       0x00000000000003de       0x12 os/getchar.o
 .comment       0x00000000000003f0       0x12 os/mem.o
 .comment       0x0000000000000402       0x12 os/testFun.o
 .comment       0x0000000000000414       0x12 os/stdlib.o
 .comment       0x0000000000000426       0x12 os/env.o
 .comment       0x0000000000000438       0x12 os/common_fun.o
 .comment       0x000000000000044a       0x12 os/os.o
 .comment       0x000000000000045c       0x12 os/shell.o
 .comment       0x000000000000046e       0x12 os/rand.o
 .comment       0x0000000000000480       0x12 os/thread.o
 .comment       0x0000000000000492       0x12 os/net/synMain.o
 .comment       0x00000000000004a4       0x12 os/net/mii.o
 .comment       0x00000000000004b6       0x12 os/net/synopGMAC_plat.o
 .comment       0x00000000000004c8       0x12 os/net/synopGMAC_Dev.o
 .comment       0x00000000000004da       0x12 os/net/lwip-1.4.1/src/core/dhcp.o
 .comment       0x00000000000004ec       0x12 os/net/lwip-1.4.1/src/core/mem.o
 .comment       0x00000000000004fe       0x12 os/net/lwip-1.4.1/src/core/init.o
 .comment       0x0000000000000510       0x12 os/net/lwip-1.4.1/src/core/memp.o
 .comment       0x0000000000000522       0x12 os/net/lwip-1.4.1/src/core/sys.o
 .comment       0x0000000000000534       0x12 os/net/lwip-1.4.1/src/core/tcp_in.o
 .comment       0x0000000000000546       0x12 os/net/lwip-1.4.1/src/core/dns.o
 .comment       0x0000000000000558       0x12 os/net/lwip-1.4.1/src/core/raw.o
 .comment       0x000000000000056a       0x12 os/net/lwip-1.4.1/src/core/tcp.o
 .comment       0x000000000000057c       0x12 os/net/lwip-1.4.1/src/core/def.o
 .comment       0x000000000000058e       0x12 os/net/lwip-1.4.1/src/core/netif.o
 .comment       0x00000000000005a0       0x12 os/net/lwip-1.4.1/src/core/stats.o
 .comment       0x00000000000005b2       0x12 os/net/lwip-1.4.1/src/core/timers.o
 .comment       0x00000000000005c4       0x12 os/net/lwip-1.4.1/src/core/pbuf.o
 .comment       0x00000000000005d6       0x12 os/net/lwip-1.4.1/src/core/udp.o
 .comment       0x00000000000005e8       0x12 os/net/lwip-1.4.1/src/core/tcp_out.o
 .comment       0x00000000000005fa       0x12 os/net/lwip-1.4.1/src/core/ipv4/ip_frag.o
 .comment       0x000000000000060c       0x12 os/net/lwip-1.4.1/src/core/ipv4/inet.o
 .comment       0x000000000000061e       0x12 os/net/lwip-1.4.1/src/core/ipv4/ip_addr.o
 .comment       0x0000000000000630       0x12 os/net/lwip-1.4.1/src/core/ipv4/igmp.o
 .comment       0x0000000000000642       0x12 os/net/lwip-1.4.1/src/core/ipv4/ip.o
 .comment       0x0000000000000654       0x12 os/net/lwip-1.4.1/src/core/ipv4/autoip.o
 .comment       0x0000000000000666       0x12 os/net/lwip-1.4.1/src/core/ipv4/inet_chksum.o
 .comment       0x0000000000000678       0x12 os/net/lwip-1.4.1/src/core/ipv4/icmp.o
 .comment       0x000000000000068a       0x12 os/net/lwip-1.4.1/src/api/netdb.o
 .comment       0x000000000000069c       0x12 os/net/lwip-1.4.1/src/api/api_lib.o
 .comment       0x00000000000006ae       0x12 os/net/lwip-1.4.1/src/api/netifapi.o
 .comment       0x00000000000006c0       0x12 os/net/lwip-1.4.1/src/api/tcpip.o
 .comment       0x00000000000006d2       0x12 os/net/lwip-1.4.1/src/api/netbuf.o
 .comment       0x00000000000006e4       0x12 os/net/lwip-1.4.1/src/api/err.o
 .comment       0x00000000000006f6       0x12 os/net/lwip-1.4.1/src/api/api_msg.o
 .comment       0x0000000000000708       0x12 os/net/lwip-1.4.1/src/api/sockets.o
 .comment       0x000000000000071a       0x12 os/net/lwip-1.4.1/src/netif/slipif.o
 .comment       0x000000000000072c       0x12 os/net/lwip-1.4.1/src/netif/etharp.o
 .comment       0x000000000000073e       0x12 os/net/lwip-1.4.1/src/netif/ethernetif.o
 .comment       0x0000000000000750       0x12 os/net/lwip-1.4.1/src/arch/sys_arch.o
 .comment       0x0000000000000762       0x12 os/hardware/spi_flash.o
 .comment       0x0000000000000774       0x12 os/hardware/reboot.o
 .comment       0x0000000000000786       0x12 os/filesys/netio.o
 .comment       0x0000000000000798       0x12 os/filesys/tftplib.o
 .comment       0x00000000000007aa       0x12 os/filesys/filesys.o
 .comment       0x00000000000007bc       0x12 os/filesys/loadelf.o
 .comment       0x00000000000007ce       0x12 os/filesys/load.o

.gnu.attributes
                0x0000000000000000       0x10
 .gnu.attributes
                0x0000000000000000       0x10 lib/ls1c_delay.o
 .gnu.attributes
                0x0000000000000010       0x10 lib/ls1c_cache.o
 .gnu.attributes
                0x0000000000000020       0x10 lib/ls1c_can.o
 .gnu.attributes
                0x0000000000000030       0x10 lib/ls1c_simulate_i2c.o
 .gnu.attributes
                0x0000000000000040       0x10 lib/ls1c_timer.o
 .gnu.attributes
                0x0000000000000050       0x10 lib/ls1c_pin.o
 .gnu.attributes
                0x0000000000000060       0x10 lib/ls1c_irq.o
 .gnu.attributes
                0x0000000000000070       0x10 lib/ls1c_i2c.o
 .gnu.attributes
                0x0000000000000080       0x10 lib/ls1c_public.o
 .gnu.attributes
                0x0000000000000090       0x10 lib/ls1c_sys_tick.o
 .gnu.attributes
                0x00000000000000a0       0x10 lib/ls1c_clock.o
 .gnu.attributes
                0x00000000000000b0       0x10 lib/ls1c_uart.o
 .gnu.attributes
                0x00000000000000c0       0x10 lib/ls1c_spi.o
 .gnu.attributes
                0x00000000000000d0       0x10 lib/ls1c_gpio.o
 .gnu.attributes
                0x00000000000000e0       0x10 lib/ls1c_pwm.o
 .gnu.attributes
                0x00000000000000f0       0x10 example/test_delay.o
 .gnu.attributes
                0x0000000000000100       0x10 example/test_can.o
 .gnu.attributes
                0x0000000000000110       0x10 example/test_i2c.o
 .gnu.attributes
                0x0000000000000120       0x10 example/test_fpu.o
 .gnu.attributes
                0x0000000000000130       0x10 example/test_timer.o
 .gnu.attributes
                0x0000000000000140       0x10 example/led.o
 .gnu.attributes
                0x0000000000000150       0x10 example/test_gpio.o
 .gnu.attributes
                0x0000000000000160       0x10 example/test_sys_tick.o
 .gnu.attributes
                0x0000000000000170       0x10 example/test_uart.o
 .gnu.attributes
                0x0000000000000180       0x10 example/test_spi.o
 .gnu.attributes
                0x0000000000000190       0x10 example/test_simulate_i2c.o
 .gnu.attributes
                0x00000000000001a0       0x10 example/test_pwm.o
 .gnu.attributes
                0x00000000000001b0       0x10 app/main.o
 .gnu.attributes
                0x00000000000001c0       0x10 libc/ctype.o
 .gnu.attributes
                0x00000000000001d0       0x10 libc/printf.o
 .gnu.attributes
                0x00000000000001e0       0x10 libc/strcspn.o
 .gnu.attributes
                0x00000000000001f0       0x10 libc/sprintf.o
 .gnu.attributes
                0x0000000000000200       0x10 libc/strstr.o
 .gnu.attributes
                0x0000000000000210       0x10 libc/strlen.o
 .gnu.attributes
                0x0000000000000220       0x10 libc/strcmp.o
 .gnu.attributes
                0x0000000000000230       0x10 libc/strcpy.o
 .gnu.attributes
                0x0000000000000240       0x10 libc/modf.o
 .gnu.attributes
                0x0000000000000250       0x10 libc/memcpy.o
 .gnu.attributes
                0x0000000000000260       0x10 libc/strichr.o
 .gnu.attributes
                0x0000000000000270       0x10 libc/strcat.o
 .gnu.attributes
                0x0000000000000280       0x10 libc/strtoupp.o
 .gnu.attributes
                0x0000000000000290       0x10 libc/fls.o
 .gnu.attributes
                0x00000000000002a0       0x10 libc/scanf.o
 .gnu.attributes
                0x00000000000002b0       0x10 libc/toupper.o
 .gnu.attributes
                0x00000000000002c0       0x10 libc/strncpy.o
 .gnu.attributes
                0x00000000000002d0       0x10 libc/atob.o
 .gnu.attributes
                0x00000000000002e0       0x10 libc/vsprintf.o
 .gnu.attributes
                0x00000000000002f0       0x10 libc/ffs.o
 .gnu.attributes
                0x0000000000000300       0x10 libc/str_fmt.o
 .gnu.attributes
                0x0000000000000310       0x10 libc/strchr.o
 .gnu.attributes
                0x0000000000000320       0x10 libm/s_fabs.o
 .gnu.attributes
                0x0000000000000330       0x10 libm/s_scalbn.o
 .gnu.attributes
                0x0000000000000340       0x10 libm/e_pow.o
 .gnu.attributes
                0x0000000000000350       0x10 libm/e_sqrt.o
 .gnu.attributes
                0x0000000000000360       0x10 libm/s_copysign.o
 .gnu.attributes
                0x0000000000000370       0x10 os/getchar.o
 .gnu.attributes
                0x0000000000000380       0x10 os/mem.o
 .gnu.attributes
                0x0000000000000390       0x10 os/testFun.o
 .gnu.attributes
                0x00000000000003a0       0x10 os/stdlib.o
 .gnu.attributes
                0x00000000000003b0       0x10 os/env.o
 .gnu.attributes
                0x00000000000003c0       0x10 os/common_fun.o
 .gnu.attributes
                0x00000000000003d0       0x10 os/os.o
 .gnu.attributes
                0x00000000000003e0       0x10 os/shell.o
 .gnu.attributes
                0x00000000000003f0       0x10 os/rand.o
 .gnu.attributes
                0x0000000000000400       0x10 os/thread.o
 .gnu.attributes
                0x0000000000000410       0x10 os/net/synMain.o
 .gnu.attributes
                0x0000000000000420       0x10 os/net/mii.o
 .gnu.attributes
                0x0000000000000430       0x10 os/net/synopGMAC_plat.o
 .gnu.attributes
                0x0000000000000440       0x10 os/net/synopGMAC_Dev.o
 .gnu.attributes
                0x0000000000000450       0x10 os/net/lwip-1.4.1/src/core/dhcp.o
 .gnu.attributes
                0x0000000000000460       0x10 os/net/lwip-1.4.1/src/core/mem.o
 .gnu.attributes
                0x0000000000000470       0x10 os/net/lwip-1.4.1/src/core/init.o
 .gnu.attributes
                0x0000000000000480       0x10 os/net/lwip-1.4.1/src/core/memp.o
 .gnu.attributes
                0x0000000000000490       0x10 os/net/lwip-1.4.1/src/core/sys.o
 .gnu.attributes
                0x00000000000004a0       0x10 os/net/lwip-1.4.1/src/core/tcp_in.o
 .gnu.attributes
                0x00000000000004b0       0x10 os/net/lwip-1.4.1/src/core/dns.o
 .gnu.attributes
                0x00000000000004c0       0x10 os/net/lwip-1.4.1/src/core/raw.o
 .gnu.attributes
                0x00000000000004d0       0x10 os/net/lwip-1.4.1/src/core/tcp.o
 .gnu.attributes
                0x00000000000004e0       0x10 os/net/lwip-1.4.1/src/core/def.o
 .gnu.attributes
                0x00000000000004f0       0x10 os/net/lwip-1.4.1/src/core/netif.o
 .gnu.attributes
                0x0000000000000500       0x10 os/net/lwip-1.4.1/src/core/stats.o
 .gnu.attributes
                0x0000000000000510       0x10 os/net/lwip-1.4.1/src/core/timers.o
 .gnu.attributes
                0x0000000000000520       0x10 os/net/lwip-1.4.1/src/core/pbuf.o
 .gnu.attributes
                0x0000000000000530       0x10 os/net/lwip-1.4.1/src/core/udp.o
 .gnu.attributes
                0x0000000000000540       0x10 os/net/lwip-1.4.1/src/core/tcp_out.o
 .gnu.attributes
                0x0000000000000550       0x10 os/net/lwip-1.4.1/src/core/ipv4/ip_frag.o
 .gnu.attributes
                0x0000000000000560       0x10 os/net/lwip-1.4.1/src/core/ipv4/inet.o
 .gnu.attributes
                0x0000000000000570       0x10 os/net/lwip-1.4.1/src/core/ipv4/ip_addr.o
 .gnu.attributes
                0x0000000000000580       0x10 os/net/lwip-1.4.1/src/core/ipv4/igmp.o
 .gnu.attributes
                0x0000000000000590       0x10 os/net/lwip-1.4.1/src/core/ipv4/ip.o
 .gnu.attributes
                0x00000000000005a0       0x10 os/net/lwip-1.4.1/src/core/ipv4/autoip.o
 .gnu.attributes
                0x00000000000005b0       0x10 os/net/lwip-1.4.1/src/core/ipv4/inet_chksum.o
 .gnu.attributes
                0x00000000000005c0       0x10 os/net/lwip-1.4.1/src/core/ipv4/icmp.o
 .gnu.attributes
                0x00000000000005d0       0x10 os/net/lwip-1.4.1/src/api/netdb.o
 .gnu.attributes
                0x00000000000005e0       0x10 os/net/lwip-1.4.1/src/api/api_lib.o
 .gnu.attributes
                0x00000000000005f0       0x10 os/net/lwip-1.4.1/src/api/netifapi.o
 .gnu.attributes
                0x0000000000000600       0x10 os/net/lwip-1.4.1/src/api/tcpip.o
 .gnu.attributes
                0x0000000000000610       0x10 os/net/lwip-1.4.1/src/api/netbuf.o
 .gnu.attributes
                0x0000000000000620       0x10 os/net/lwip-1.4.1/src/api/err.o
 .gnu.attributes
                0x0000000000000630       0x10 os/net/lwip-1.4.1/src/api/api_msg.o
 .gnu.attributes
                0x0000000000000640       0x10 os/net/lwip-1.4.1/src/api/sockets.o
 .gnu.attributes
                0x0000000000000650       0x10 os/net/lwip-1.4.1/src/netif/slipif.o
 .gnu.attributes
                0x0000000000000660       0x10 os/net/lwip-1.4.1/src/netif/etharp.o
 .gnu.attributes
                0x0000000000000670       0x10 os/net/lwip-1.4.1/src/netif/ethernetif.o
 .gnu.attributes
                0x0000000000000680       0x10 os/net/lwip-1.4.1/src/arch/sys_arch.o
 .gnu.attributes
                0x0000000000000690       0x10 os/hardware/spi_flash.o
 .gnu.attributes
                0x00000000000006a0       0x10 os/hardware/reboot.o
 .gnu.attributes
                0x00000000000006b0       0x10 os/filesys/netio.o
 .gnu.attributes
                0x00000000000006c0       0x10 os/filesys/tftplib.o
 .gnu.attributes
                0x00000000000006d0       0x10 os/filesys/filesys.o
 .gnu.attributes
                0x00000000000006e0       0x10 os/filesys/loadelf.o
 .gnu.attributes
                0x00000000000006f0       0x10 os/filesys/load.o

.debug_ranges   0x0000000000000000     0x42f8
 .debug_ranges  0x0000000000000000       0x50 lib/ls1c_can.o
 .debug_ranges  0x0000000000000050      0x110 lib/ls1c_simulate_i2c.o
 .debug_ranges  0x0000000000000160      0x140 lib/ls1c_timer.o
 .debug_ranges  0x00000000000002a0      0x1c0 lib/ls1c_i2c.o
 .debug_ranges  0x0000000000000460       0x18 lib/ls1c_sys_tick.o
 .debug_ranges  0x0000000000000478       0xd0 lib/ls1c_uart.o
 .debug_ranges  0x0000000000000548      0x298 lib/ls1c_spi.o
 .debug_ranges  0x00000000000007e0       0x38 example/test_simulate_i2c.o
 .debug_ranges  0x0000000000000818       0x20 libc/modf.o
 .debug_ranges  0x0000000000000838       0x18 libc/atob.o
 .debug_ranges  0x0000000000000850      0x108 libc/vsprintf.o
 .debug_ranges  0x0000000000000958       0x18 libm/s_fabs.o
 .debug_ranges  0x0000000000000970       0x48 libm/s_scalbn.o
 .debug_ranges  0x00000000000009b8      0x1a8 libm/e_pow.o
 .debug_ranges  0x0000000000000b60       0x18 libm/e_sqrt.o
 .debug_ranges  0x0000000000000b78       0x90 os/getchar.o
 .debug_ranges  0x0000000000000c08       0x48 os/mem.o
 .debug_ranges  0x0000000000000c50       0x38 os/env.o
 .debug_ranges  0x0000000000000c88      0x150 os/shell.o
 .debug_ranges  0x0000000000000dd8      0x3e8 os/thread.o
 .debug_ranges  0x00000000000011c0       0xb0 os/net/synMain.o
 .debug_ranges  0x0000000000001270       0x30 os/net/mii.o
 .debug_ranges  0x00000000000012a0     0x1d20 os/net/synopGMAC_Dev.o
 .debug_ranges  0x0000000000002fc0      0x138 os/net/lwip-1.4.1/src/core/tcp_in.o
 .debug_ranges  0x00000000000030f8       0x90 os/net/lwip-1.4.1/src/core/dns.o
 .debug_ranges  0x0000000000003188       0xe8 os/net/lwip-1.4.1/src/core/tcp.o
 .debug_ranges  0x0000000000003270       0x18 os/net/lwip-1.4.1/src/core/netif.o
 .debug_ranges  0x0000000000003288       0xa8 os/net/lwip-1.4.1/src/core/pbuf.o
 .debug_ranges  0x0000000000003330       0x30 os/net/lwip-1.4.1/src/core/udp.o
 .debug_ranges  0x0000000000003360      0x278 os/net/lwip-1.4.1/src/core/tcp_out.o
 .debug_ranges  0x00000000000035d8       0xb0 os/net/lwip-1.4.1/src/core/ipv4/igmp.o
 .debug_ranges  0x0000000000003688       0x38 os/net/lwip-1.4.1/src/core/ipv4/ip.o
 .debug_ranges  0x00000000000036c0       0x48 os/net/lwip-1.4.1/src/core/ipv4/icmp.o
 .debug_ranges  0x0000000000003708       0x30 os/net/lwip-1.4.1/src/api/api_lib.o
 .debug_ranges  0x0000000000003738       0x18 os/net/lwip-1.4.1/src/api/tcpip.o
 .debug_ranges  0x0000000000003750       0x58 os/net/lwip-1.4.1/src/api/api_msg.o
 .debug_ranges  0x00000000000037a8      0x468 os/net/lwip-1.4.1/src/api/sockets.o
 .debug_ranges  0x0000000000003c10      0x190 os/net/lwip-1.4.1/src/netif/etharp.o
 .debug_ranges  0x0000000000003da0       0x88 os/net/lwip-1.4.1/src/netif/ethernetif.o
 .debug_ranges  0x0000000000003e28      0x220 os/hardware/spi_flash.o
 .debug_ranges  0x0000000000004048       0x30 os/filesys/netio.o
 .debug_ranges  0x0000000000004078       0xc8 os/filesys/tftplib.o
 .debug_ranges  0x0000000000004140       0x18 os/filesys/filesys.o
 .debug_ranges  0x0000000000004158      0x170 os/filesys/loadelf.o
 .debug_ranges  0x00000000000042c8       0x30 os/filesys/load.o
